(dp1
S'output'
p2
S"<class 'sqlite3.IntegrityError'> column title is not unique"
p3
sS'layer'
p4
S'/home/samfisher/iiith/Semester 2/web2py/applications/notes/controllers/default.py'
p5
sS'code'
p6
S'#search by date \n#email sending(send a copy and for reminders)\n#note downloading\n#text editor(if possible)\n#friend requests and privacy\nimport datetime\nimport os\nimport re\n# -*- coding: utf-8 -*-\nimport time\n# this file is released under public domain and you can use without limitations\n\n#########################################################################\n## This is a samples controller\n## - index is the default action of any application\n## - user is required for authentication and authorization\n## - download is for downloading files uploaded in the db (does streaming)\n## - call exposes all registered services (none by default)\n#########################################################################\n\n\nimport gluon.contrib.simplejson\n@auth.requires_login()\ndef index():\n    """\n    example action using the internationalization operator t and flash\n    rendered by views/default/index.html or views/generic.html\n\n    if you need a simple wiki simple replace the two lines below with:\n    return auth.wiki()\n    """\n    p=\'No tasks yet completed :(\'\n    q=\'No pending tasks :)\'\n    a=db(db.auth_user.id==auth.user.id).select()\n    b=a[0][\'notes\']\n    c=db(db.task.authoris==auth.user.email).select()\n    for i in range(0,len(c)):\n\t    if c[i][\'done\']:\n\t    \tp=\'Completed Tasks :\'\n\t    else:\n\t    \tq=\'Pending Tasks :\'\n    response.flash ="Welcome to Notes!"\n    return dict(b=b,a=[],c=c,p=p,q=q)\n\n\ndef user():\n    """\n    exposes:\n    http://..../[app]/default/user/login\n    http://..../[app]/default/user/logout\n    http://..../[app]/default/user/register\n    http://..../[app]/default/user/profile\n    http://..../[app]/default/user/retrieve_password\n    http://..../[app]/default/user/change_password\n    use @auth.requires_login()\n        @auth.requires_membership(\'group name\')\n        @auth.requires_permission(\'read\',\'table name\',record_id)\n    to decorate functions that need access control\n    """\n    return dict(form=auth())\n\n\ndef download():\n    """\n    allows downloading of uploaded files\n    http://..../[app]/default/download/[filename]\n    """\n    return response.download(request, db)\n\n\ndef call():\n    """\n    exposes services. for example:\n    http://..../[app]/default/call/jsonrpc\n    decorate with @services.jsonrpc the functions to expose\n    supports xml, json, xmlrpc, jsonrpc, amfrpc, rss, csv\n    """\n    return service()\n\n\n@auth.requires_signature()\ndef data():\n    """\n    http://..../[app]/default/data/tables\n    http://..../[app]/default/data/create/[table]\n    http://..../[app]/default/data/read/[table]/[id]\n    http://..../[app]/default/data/update/[table]/[id]\n    http://..../[app]/default/data/delete/[table]/[id]\n    http://..../[app]/default/data/select/[table]\n    http://..../[app]/default/data/search/[table]\n    but URLs must be signed, i.e. linked with\n      A(\'table\',_href=URL(\'data/tables\',user_signature=True))\n    or with the signed load operator\n      LOAD(\'default\',\'data.load\',args=\'tables\',ajax=True,user_signature=True)\n    """\n    return dict(form=crud())\n@auth.requires_login()\ndef create():\n\tresponse.flash=\'Create Your Notes Here !\'\n\tif session.msg==\'NO\':\n\t\tresponse.flash=\'Invalid Title!\'\n\t\tsession.msg=\'Yes\'\n\tform=SQLFORM.factory(\n\t\tField(\'title\',\'string\',label=\'Title\'),\n\t\tField(\'description\',\'string\',label="Short description",requires=IS_NOT_EMPTY()),\n\t\tField(\'val\',\'text\',label=\'Note\',requires=IS_NOT_EMPTY()),\n\t\tField(\'tags\',\'string\',label="tag the table with word/s"))\n\tif form.process().accepted:\n\t\ta=db(db.auth_user.id==auth.user.id).select()\n\t\tif form.vars.title in a[0][\'notes\'].split(\'@\'):\n\t\t\tsession.msg=\'NO\'\n\t\t\tredirect(URL(\'create\'))\n\t\tb=a[0][\'notes\']+\'@\'+form.vars.title\n\t\tc=form.vars.tags.split(\',\')\n\t\tdb(db.auth_user.id==auth.user.id).update(notes=b)\n\t\tsession.title=form.vars.title\n\t\tdb.note.insert(title=form.vars.title,cd=request.now,md=request.now,description=form.vars.description,val=form.vars.val,tags=form.vars.tags,authoris=auth.user.email)\n\t\tfor i in range(len(c)):\t\n\t\t \tdb.tags.insert(word=c[i],title=form.vars.title,authoris=auth.user.email)\t\n\t\tredirect(URL(\'cr\'))\n\treturn dict(form=form)\n\n@auth.requires_login()\ndef cr():\n\tmessage=\'Want to add Attachments ?\'\n\treturn dict(message=message)\n\n@auth.requires_login()\ndef cratt():\n\tif session.msg==\'A\':\n\t\tresponse.flash=\'Change File Name\'\n\t\tsession.msg=\'Y\'\n\ttitle=session.title\n\tmessage=\'Hi\'\n\ta=db((db.att.title==title)&(db.att.usr==auth.user.email)).select()\n\tform=SQLFORM(db.att,deletable=True,upload=os.path.join(request.folder,\'/pic\'))\n\tif request.vars.fil!=None:\n\t\tform.vars.nm=request.vars.fil.filename\n\tif form.process().accepted:\n\t\ta=db((db.att.nm==form.vars.nm)&(db.att.usr==auth.user.email)&(db.att.title==session.title)).select()\n\t\tif len(a)>0:\n\t\t\tsession.msg=\'A\'\n\t\t\tredirect(URL(\'cratt\'))\n\t\tdb(db.att.fil==form.vars.fil).update(usr=auth.user.email,title=title,nm=form.vars.nm)\n\t\tredirect(URL(\'cratt\'))\n\treturn dict(a=a,form=form)\n@auth.requires_login()\ndef show():\n\ttitle=request.args(0,cast=str).strip()\n\ttitle=title.replace(\'_\',\' \')\n\tsession.title=title\n\ta=db((db.note.title==title)& (auth.user.email==db.note.authoris)).select()\n\ttit=a[0][\'title\']\n\tval=a[0][\'val\']\n\tdes=a[0][\'description\']\n\ttags=a[0][\'tags\']\n\tct=a[0][\'cd\']\n\tmt=a[0][\'md\']\n\tl=db((db.att.title==title)&(db.att.usr==auth.user.email)).select()\n\treturn dict(title=tit,val=val,des=des,tags=tags,ct=ct,mt=mt,a=a,l=l)\n@auth.requires_login()\ndef edit():\n\tif session.message==\'NOT\':\n\t\tresponse.flash=\'Invalid Username\'\n\t\tsession.message=\'Yes\'\n\ttitle=request.args(0,cast=str).replace(\'_\',\' \')\n\ttitle=title.replace(\'_\',\' \')\n\tc=db((db.note.title==title)&(db.note.authoris==auth.user.email)).select()\n\tform=SQLFORM.factory(\n\t\tField(\'title\',\'string\',label=\'Title\',default=c[0][\'title\']),\n\t\tField(\'description\',\'string\',label=\'Description\',default=c[0][\'description\']),\n\t\tField(\'val\',\'text\',label=\'Note\',default=c[0][\'val\'],requires=IS_NOT_EMPTY()),\n\t\tField(\'tags\',\'string\',label=\'Tags\',default=c[0][\'tags\']))\n\tif form.process().accepted:\n\t\tc=form.vars.tags.split(\',\')\n\t\ta=db(db.note.title==form.vars.title).select()\n\t\tif len(a)==1 and a[0][\'title\']!=title:\n\t\t\tsession.message=\'NOT\'\n\t\t\tredirect(URL(\'edit\',args=title))\n\t\tdb((db.tags.title==title)&(db.tags.authoris==auth.user.email)).delete()\n\t\tfor i in range(len(c)):\t\n\t\t \tdb.tags.insert(word=c[i],title=form.vars.title,authoris=auth.user.email)\t\n\t\t\n\t\tdb((db.note.title==title)&(auth.user.email==db.note.authoris)).update(title=form.vars.title,md=request.now,description=form.vars.description,val=form.vars.val,tags=form.vars.tags)\n\t\ta=db(db.auth_user.id==auth.user.id).select()\n\t\ta=a[0][\'notes\']\n\t\tb=a.split(\'@\')\n\t\ta=\'\'\n\t\tfor i in range(1,len(b)):\n\t\t\tif b[i].strip()==title.strip():\n\t\t\t\tb[i]=form.vars.title\n\t\t\ta+=\'@\'+b[i]\n\t\tdb(db.auth_user.id==auth.user.id).update(notes=a)\n\t\tredirect(URL(\'show\',args=form.vars.title))\n\treturn dict(form=form)\n@auth.requires_login()\ndef edshow():\n    a=db(db.auth_user.id==auth.user.id).select()\n    b=a[0][\'notes\']\n    response.flash = "You can edit notes here!"\n    return dict(b=b,a=[])\n@auth.requires_login()\ndef eddel():\n    a=db(db.auth_user.id==auth.user.id).select()\n    b=a[0][\'notes\']\n    response.flash = "Are you sure ? :("\n    return dict(b=b,a=[])\n@auth.requires_login()\ndef shdel():\n\ttitle=request.args(0,cast=str).replace(\'_\',\' \')\n\ttitle=title.replace(\'_\',\' \')\n\treturn dict(title=title)\n@auth.requires_login()\ndef delet():\n\ttitle=request.args(0,cast=str).replace(\'_\',\' \')\n\ttitle=title.replace(\'_\',\' \')\n\tdb((db.note.title==title)&(db.note.authoris==auth.user.email)).delete()\n\tdb((db.tags.title==title)&(db.tags.authoris==auth.user.email)).delete()\n\tdb((db.att.usr==auth.user.email)&(db.att.title==title)).delete()\n\ta=db(db.auth_user.id==auth.user.id).select()\n\ta=a[0][\'notes\']\n\tb=a.split(\'@\')\n\ta=\'\'\n\tfor i in range(1,len(b)):\n\t\tif b[i].strip()==title.strip():\n\t\t\tcontinue\n\t\ta+=\'@\'+b[i]\n\tdb(db.auth_user.id==auth.user.id).update(notes=a)\n\tredirect(URL(\'index\'))\n\treturn dict(form=form)\n@auth.requires_login()\ndef searchinp():\n\tform=SQLFORM.factory(Field(\'Name\',\'string\',requires=IS_NOT_EMPTY()),\n\t\t\tField(\'Choice\',requires=IS_IN_SET([\'Title\',\'Tags\'])))\n\tif form.process().accepted:\n\t\tif form.vars.Choice==\'Title\':\n\t\t\tredirect(URL(\'searchtit\',args=form.vars.Name))\n\t\telif form.vars.Choice==\'Tags\':\n\t\t\tredirect(URL(\'searchtag\',args=form.vars.Name))\n\treturn dict(form=form)\n@auth.requires_login()\ndef searchtag():\n\ta=request.args(0,cast=str).replace(\'_\',\' \')\n\ta=a.replace(\'_\',\' \')\n        nam=[]\n\ttit=[]\n        name=db(db.tags.id>0).select(db.tags.ALL)\n\tl=len(name)\n\tfor i in range(len(name)):\n\t\tmat=re.search(a,name[i][\'word\'])\n\t\tif mat and name[i][\'authoris\']==auth.user.email:\n\t\t\tnam.append(name[i])\n\treturn dict(nam=nam)\n@auth.requires_login()\ndef litetag():\n\ttagname=[]\n\tnotest=[]\n\ta=db(auth.user.email==db.tags.authoris).select(db.tags.ALL)\n\tfor i in range(len(a)):#if len(a) is zero then tell that there is no tags attached\n\t\tif a[i][\'word\'] not in tagname:\n\t\t\ttagname.append(a[i][\'word\'])\n\t\t\ttmp=[];\n\t\t\tfor j in range(len(a)):\n\t\t\t\tif a[i][\'word\']==a[j][\'word\']:\n\t\t\t\t\ttmp.append(a[j][\'title\'])\n\t\t\tnotest.append(tmp)\n\treturn dict(tagname=tagname,notest=notest)\n\n@auth.requires_login()\ndef searchtit():\n\ta=request.args(0,cast=str).replace(\'_\',\' \')\n\ta=a.replace(\'_\',\' \')\n        nam=[]\n        name=db(db.note.title>0).select(db.note.ALL)\n\tl=len(name)\n\tfor i in range(0,l):\n\t\tmat=re.search(a,name[i][\'title\'])\n\t\tif mat and name[i][\'authoris\']==auth.user.email:\n\t\t\tnam.append(name[i])\n\treturn dict(nam=nam)\n@auth.requires_login()\ndef crtask():\n\tresponse.flash=\'Create Tasks Here\'\n\tif session.msg==\'N\':\n\t\tresponse.flash=\'Invalid Title\'\n\t\tsession.msg=\'Y\'\n\telif session.msg==\'T\':\n\t\tresponse.flash=\'Invalid Date\'\n\t\tsession.msg=\'Y\'\n\tform=SQLFORM.factory(\n\t\t\tField(\'title\',\'string\',label=\'Title\',requires=IS_NOT_EMPTY()),\n\t\t\tField(\'des\',\'string\',label=\'Description\'),\n\t\t\tField(\'pen\',\'date\',label=\'Date\'))\n\tif form.process().accepted:\n\t\ta=db((db.task.title==form.vars.title)&(db.task.authoris==auth.user.email)).select()\n\t\tif len(a)>0:\n\t\t\tsession.msg=\'N\'\n\t\t\tredirect(URL(\'crtask\'))\n\t\tif form.vars.pen<datetime.date.today():\n\t\t\tsession.msg=\'T\'\n\t\t\tredirect(URL(\'crtask\'))\n\t\tdb.task.insert(title=form.vars.title,description=form.vars.des,pending=form.vars.pen,done=False,authoris=auth.user.email)\n\t\tredirect(URL(\'index\'))\n\treturn dict(form=form)\n@auth.requires_login()\ndef shtask():\n\ttitle=request.args(0,cast=str).strip()\n\ttitle=title.replace(\'_\',\' \')\n\ta=db((db.task.title==title)& (auth.user.email==db.task.authoris)).select()\n\ttit=a[0][\'title\']\n\tdes=a[0][\'description\']\n\tl=db(db.att.title==title).select()\n\treturn dict(title=tit,description=des,a=a,pending=a[0][\'pending\'])\n@auth.requires_login()\ndef taskde():\n\tresponse.flash=\'Are You Sure ??\'\n\ttitle=request.args(0,cast=str).strip()\n\ttitle=title.replace(\'_\',\' \')\n\treturn dict(title=title)\n@auth.requires_login()\ndef taskdel():\n\ttitle=request.args(0,cast=str).strip()\n\ttitle=title.replace(\'_\',\' \')\n\tdb((db.task.title==title)&(db.task.authoris==auth.user.email)).delete()\n\tmessage=\'Done\'\n\tredirect(URL(\'index\'))\n\treturn (message)\n@auth.requires_login()\ndef taskshdel():\n\ta=db(db.task.authoris==auth.user.email).select()\n\treturn dict(a=a)\n\ndef help():\n\tresponse.flash=\'Hi\'\n\tmessage=\'In case of doubts contact the developers\'\n\treturn dict(message=message)\n@auth.requires_login()\ndef taskedit():\n\tif session.message==\'NOT\':\n\t\tresponse.flash=\'Invalid Username\'\n\t\tsession.message=\'Yes\'\n\ttitle=request.args(0,cast=str).strip()\n\ttitle=title.replace(\'_\',\' \')\n\tc=db(db.task.title==title).select()\n\tform=SQLFORM.factory(\n\t\tField(\'title\',\'string\',label=\'Title\',default=c[0][\'title\']),\n\t\tField(\'description\',\'string\',label=\'Description\',default=c[0][\'description\']),\n\t\tField(\'time\',\'date\',default=c[0][\'pending\']),\n\t\tField(\'done\',\'boolean\',default=c[0][\'done\']))\n\tif form.process().accepted:\n\t\ta=db(db.task.title==form.vars.title).select()\n\t\tif len(a)==1 and a[0][\'title\']!=title:\n\t\t\tsession.message=\'NOT\'\n\t\t\tredirect(URL(\'taskedit\',args=title))\n\t\tdb((db.task.title==title)&(auth.user.email==db.task.authoris)).update(title=form.vars.title,description=form.vars.description,pending=form.vars.time,done=form.vars.done)\n\t\tredirect(URL(\'shtask\',args=form.vars.title))\n\treturn dict(form=form,title=title)\n@auth.requires_login()\ndef taskedshow():\n    a=db(db.task.authoris==auth.user.email).select()\n    response.flash = "You can edit tasks here!"\n    return dict(a=a)\n@auth.requires_login()\ndef asearchtit():\n\tform=SQLFORM.factory(Field(\'Name\',\'string\',requires=IS_NOT_EMPTY()))\n\tif form.process().accepted:\n\t\tredirect(URL(\'searchtit\',args=form.vars.Name))\n\treturn dict(form=form)\n@auth.requires_login()\ndef asearchtag():\n\tform=SQLFORM.factory(Field(\'Name\',\'string\',requires=IS_NOT_EMPTY()))\n\tif form.process().accepted:\n\t\tredirect(URL(\'searchtag\',args=form.vars.Name))\n\treturn dict(form=form)\n\n@auth.requires_login()\ndef today():\n\tform=SQLFORM.factory(Field(\'Between\',\'date\'))\n\ta=db(db.task.authoris==auth.user.email).select()\n\tb=[]\n\tc=datetime.date.today()\n\tx=\'No\'\n\tfor i in range(0,len(a)):\n\t\tif a[i][\'pending\'].date()==c:\n\t\t\tb.append(a[i])\n\t\t\tx=\'Yes\'\n\treturn dict(x=x,b=b)\n@auth.requires_login()\ndef attdel():\n\ttitle=request.args(0,cast=str).strip()\n\ttitle=title.replace(\'_\',\' \')\n\tdb(db.att.fil==title).delete()\n\tredirect(URL(\'cratt\'))\n\treturn()\n@auth.requires_login()\ndef attdel1():\n\ttitle=request.args(0,cast=str).strip()\n\ttitle=title.replace(\'_\',\' \')\n\tdb(db.att.fil==title).delete()\n\tredirect(URL(\'show\',args=session.title))\n\treturn()\n@auth.requires_login()\ndef asearchdate():\n\tform=SQLFORM.factory(Field(\'time\',\'date\',requires=IS_NOT_EMPTY()))\n\tif form.process().accepted:\n\t\tt=form.vars.time\n\t\tredirect(URL(\'sdate\',args=form.vars.time))\n\treturn dict(form=form)\n@auth.requires_login()\ndef sdate():\n\ta=request.args(0,cast=str)\n\tnam=[]\n\td=[]\n\tname=db(db.note.authoris==auth.user.email).select()\n\tl=len(name)\n\tfor i in range(l):\n\t\tif str(name[i][\'pending\'].date())==a:\n\t\t\tnam.append(name[i])\n\treturn dict(nam=nam,d=d)\n@auth.requires_login()\ndef ma():\n\tmail.send(\'aniruddhkanojia94@gmail.com\',subject=\'Hi Dude\',message=\'Shikher is a bitch\')\n\tredirect(URL(\'index\'))\n\treturn()\ndef aaa():\n\ta={}\n\ta=[\'shubham.rai@students.iiit.ac.in\']\n\tdb.scheduler_task.insert(\n\t\t\tapplication_name=\'notes/appadmin\',\n\t\t\ttask_name=\'Task 1\',\n\t\t\tgroup_name=\'main\',\n\t\t\tstatus=\'QUEUED\',\n\t\t\tfunction_name=\'f\',\n\t\t\tenabled=True,\n\t\t\tperiod=60,\n\t\t\tstart_time=request.now,\n\t\t\targs=gluon.contrib.simplejson.dumps(a))\n#a=db((db.note.title==title)& (auth.user.email==db.note.authoris[1:])).select()\n\nresponse._vars=response._caller(crtask)\n'
p7
sS'snapshot'
p8
(dp9
S'exception'
p10
(dp11
S'__module__'
p12
S"'sqlite3'"
p13
sS'__getslice__'
p14
S"<method-wrapper '__getslice__' of IntegrityError object>"
p15
sS'__str__'
p16
S"<method-wrapper '__str__' of IntegrityError object>"
p17
sS'__reduce__'
p18
S'<built-in method __reduce__ of IntegrityError object>'
p19
sS'__dict__'
p20
S'{}'
p21
sS'__sizeof__'
p22
S'<built-in method __sizeof__ of IntegrityError object>'
p23
sS'__weakref__'
p24
S'None'
p25
sS'__init__'
p26
S"<method-wrapper '__init__' of IntegrityError object>"
p27
sS'__setattr__'
p28
S"<method-wrapper '__setattr__' of IntegrityError object>"
p29
sS'__reduce_ex__'
p30
S'<built-in method __reduce_ex__ of IntegrityError object>'
p31
sS'__new__'
p32
S'<built-in method __new__ of type object>'
p33
sS'__format__'
p34
S'<built-in method __format__ of IntegrityError object>'
p35
sS'__class__'
p36
S"<class 'sqlite3.IntegrityError'>"
p37
sS'__doc__'
p38
S'None'
p39
sS'__getitem__'
p40
S"<method-wrapper '__getitem__' of IntegrityError object>"
p41
sS'__setstate__'
p42
S'<built-in method __setstate__ of IntegrityError object>'
p43
sS'__getattribute__'
p44
S"<method-wrapper '__getattribute__' of IntegrityError object>"
p45
sS'args'
p46
S"('column title is not unique',)"
p47
sS'__subclasshook__'
p48
S'<built-in method __subclasshook__ of type object>'
p49
sS'__unicode__'
p50
S'<built-in method __unicode__ of IntegrityError object>'
p51
sS'__delattr__'
p52
S"<method-wrapper '__delattr__' of IntegrityError object>"
p53
sS'__repr__'
p54
S"<method-wrapper '__repr__' of IntegrityError object>"
p55
sS'__hash__'
p56
S"<method-wrapper '__hash__' of IntegrityError object>"
p57
ssS'evalue'
p58
S'column title is not unique'
p59
sS'request'
p60
cgluon.html
XML_unpickle
p61
(S's\xec`\x00\x00<div><table><tr><td style="font-weight:bold;vertical-align:top">ajax</td><td valign="top">:</td><td><div>False</div></td></tr><tr><td style="font-weight:bold;vertical-align:top">application</td><td valign="top">:</td><td><div>notes</div></td></tr><tr><td style="font-weight:bold;vertical-align:top">args</td><td valign="top">:</td><td><div><table></table></div></td></tr><tr><td style="font-weight:bold;vertical-align:top">body</td><td valign="top">:</td><td><div>&lt;open file &#x27;&lt;fdopen&gt;&#x27;, mode &#x27;w+b&#x27; at 0xac4469c0&gt;</div></td></tr><tr><td style="font-weight:bold;vertical-align:top">cid</td><td valign="top">:</td><td><div>None</div></td></tr><tr><td style="font-weight:bold;vertical-align:top">client</td><td valign="top">:</td><td><div>127.0.0.1</div></td></tr><tr><td style="font-weight:bold;vertical-align:top">controller</td><td valign="top">:</td><td><div>default</div></td></tr><tr><td style="font-weight:bold;vertical-align:top">cookies</td><td valign="top">:</td><td><div><table><tr><td style="font-weight:bold;vertical-align:top">session_id_admin</td><td valign="top">:</td><td><div>127.0.0.1-e5515cd1-6029-4e71-afa6-48b400cc12d6<table><tr><td style="font-weight:bold;vertical-align:top">comment</td><td valign="top">:</td><td><div></div></td></tr><tr><td style="font-weight:bold;vertical-align:top">domain</td><td valign="top">:</td><td><div></div></td></tr><tr><td style="font-weight:bold;vertical-align:top">expires</td><td valign="top">:</td><td><div></div></td></tr><tr><td style="font-weight:bold;vertical-align:top">httponly</td><td valign="top">:</td><td><div></div></td></tr><tr><td style="font-weight:bold;vertical-align:top">max-age</td><td valign="top">:</td><td><div></div></td></tr><tr><td style="font-weight:bold;vertical-align:top">path</td><td valign="top">:</td><td><div></div></td></tr><tr><td style="font-weight:bold;vertical-align:top">secure</td><td valign="top">:</td><td><div></div></td></tr><tr><td style="font-weight:bold;vertical-align:top">version</td><td valign="top">:</td><td><div></div></td></tr></table></div></td></tr><tr><td style="font-weight:bold;vertical-align:top">session_id_notes</td><td valign="top">:</td><td><div>127.0.0.1-b312cdb7-65df-47e9-8ef5-cf1c04c3455e<table><tr><td style="font-weight:bold;vertical-align:top">comment</td><td valign="top">:</td><td><div></div></td></tr><tr><td style="font-weight:bold;vertical-align:top">domain</td><td valign="top">:</td><td><div></div></td></tr><tr><td style="font-weight:bold;vertical-align:top">expires</td><td valign="top">:</td><td><div></div></td></tr><tr><td style="font-weight:bold;vertical-align:top">httponly</td><td valign="top">:</td><td><div></div></td></tr><tr><td style="font-weight:bold;vertical-align:top">max-age</td><td valign="top">:</td><td><div></div></td></tr><tr><td style="font-weight:bold;vertical-align:top">path</td><td valign="top">:</td><td><div></div></td></tr><tr><td style="font-weight:bold;vertical-align:top">secure</td><td valign="top">:</td><td><div></div></td></tr><tr><td style="font-weight:bold;vertical-align:top">version</td><td valign="top">:</td><td><div></div></td></tr></table></div></td></tr><tr><td style="font-weight:bold;vertical-align:top">session_id_welcome</td><td valign="top">:</td><td><div>127.0.0.1-592db013-3ce5-434e-8165-d4772bd1a38f<table><tr><td style="font-weight:bold;vertical-align:top">comment</td><td valign="top">:</td><td><div></div></td></tr><tr><td style="font-weight:bold;vertical-align:top">domain</td><td valign="top">:</td><td><div></div></td></tr><tr><td style="font-weight:bold;vertical-align:top">expires</td><td valign="top">:</td><td><div></div></td></tr><tr><td style="font-weight:bold;vertical-align:top">httponly</td><td valign="top">:</td><td><div></div></td></tr><tr><td style="font-weight:bold;vertical-align:top">max-age</td><td valign="top">:</td><td><div></div></td></tr><tr><td style="font-weight:bold;vertical-align:top">path</td><td valign="top">:</td><td><div></div></td></tr><tr><td style="font-weight:bold;vertical-align:top">secure</td><td valign="top">:</td><td><div></div></td></tr><tr><td style="font-weight:bold;vertical-align:top">version</td><td valign="top">:</td><td><div></div></td></tr></table></div></td></tr></table></div></td></tr><tr><td style="font-weight:bold;vertical-align:top">env</td><td valign="top">:</td><td><div><table><tr><td style="font-weight:bold;vertical-align:top">app_folders</td><td valign="top">:</td><td><div>set([&#x27;/home/samfisher/iiith/Semester 2/web2py/applications/notes/&#x27;, &#x27;/home/samfisher/iiith/Semester 2/web2py/applications/admin/&#x27;, &#x27;/home/samfisher/iiith/Semester 2/web2py/applications/welcome/&#x27;])</div></td></tr><tr><td style="font-weight:bold;vertical-align:top">applications_parent</td><td valign="top">:</td><td><div>/home/samfisher/iiith/Semester 2/web2py</div></td></tr><tr><td style="font-weight:bold;vertical-align:top">cmd_args</td><td valign="top">:</td><td><div><table></table></div></td></tr><tr><td style="font-weight:bold;vertical-align:top">cmd_options</td><td valign="top">:</td><td><div>&lt;Values at 0xa6ecc4c: {&#x27;verbose&#x27;: False, &#x27;ip&#x27;: &#x27;127.0.0.1&#x27;, &#x27;with_scheduler&#x27;: False, &#x27;ips&#x27;: [], &#x27;shutdown_timeout&#x27;: 5, &#x27;taskbar&#x27;: False, &#x27;port&#x27;: 8000, &#x27;maxthreads&#x27;: None, &#x27;softcron&#x27;: False, &#x27;server_name&#x27;: &#x27;samfisher-Inspiron-7520&#x27;, &#x27;bpython&#x27;: False, &#x27;nogui&#x27;: False, &#x27;pid_filename&#x27;: &#x27;httpserver.pid&#x27;, &#x27;extcron&#x27;: False, &#x27;runcron&#x27;: False, &#x27;run_system_tests&#x27;: False, &#x27;test&#x27;: None, &#x27;folder&#x27;: &#x27;/home/samfisher/iiith/Semester 2/web2py&#x27;, &#x27;config&#x27;: &#x27;&#x27;, &#x27;import_models&#x27;: False, &#x27;winservice&#x27;: &#x27;&#x27;, &#x27;shell&#x27;: None, &#x27;run&#x27;: &#x27;&#x27;, &#x27;log_filename&#x27;: &#x27;httpserver.log&#x27;, &#x27;debuglevel&#x27;: 30, &#x27;args&#x27;: [&#x27;&#x27;], &#x27;socket_timeout&#x27;: 5, &#x27;ssl_ca_certificate&#x27;: None, &#x27;scheduler&#x27;: None, &#x27;profiler_filename&#x27;: None, &#x27;ssl_private_key&#x27;: &#x27;&#x27;, &#x27;scheduler_groups&#x27;: None, &#x27;password&#x27;: &#x27;&lt;ask&gt;&#x27;, &#x27;request_queue_size&#x27;: 5, &#x27;ssl_certificate&#x27;: &#x27;&#x27;, &#x27;cronjob&#x27;: False, &#x27;numthreads&#x27;: None, &#x27;quiet&#x27;: False, &#x27;interfaces&#x27;: None, &#x27;minthreads&#x27;: None, &#x27;timeout&#x27;: 10, &#x27;plain&#x27;: False, &#x27;nobanner&#x27;: False}&gt;</div></td></tr><tr><td style="font-weight:bold;vertical-align:top">content_length</td><td valign="top">:</td><td><div>570</div></td></tr><tr><td style="font-weight:bold;vertical-align:top">content_type</td><td valign="top">:</td><td><div>multipart/form-data; boundary=----WebKitFormBoundary6l6lo3orJkae6cwv</div></td></tr><tr><td style="font-weight:bold;vertical-align:top">db_sessions</td><td valign="top">:</td><td><div>set([])</div></td></tr><tr><td style="font-weight:bold;vertical-align:top">debugging</td><td valign="top">:</td><td><div>False</div></td></tr><tr><td style="font-weight:bold;vertical-align:top">gluon_parent</td><td valign="top">:</td><td><div>/home/samfisher/iiith/Semester 2/web2py</div></td></tr><tr><td style="font-weight:bold;vertical-align:top">http_accept</td><td valign="top">:</td><td><div>text/html,application/xhtml+xml,application/xml;q=0.9,*/*;q=0.8</div></td></tr><tr><td style="font-weight:bold;vertical-align:top">http_accept_charset</td><td valign="top">:</td><td><div>ISO-8859-1,utf-8;q=0.7,*;q=0.3</div></td></tr><tr><td style="font-weight:bold;vertical-align:top">http_accept_encoding</td><td valign="top">:</td><td><div>gzip,deflate,sdch</div></td></tr><tr><td style="font-weight:bold;vertical-align:top">http_accept_language</td><td valign="top">:</td><td><div>en-US,en;q=0.8</div></td></tr><tr><td style="font-weight:bold;vertical-align:top">http_cache_control</td><td valign="top">:</td><td><div>max-age=0</div></td></tr><tr><td style="font-weight:bold;vertical-align:top">http_connection</td><td valign="top">:</td><td><div>keep-alive</div></td></tr><tr><td style="font-weight:bold;vertical-align:top">http_content_length</td><td valign="top">:</td><td><div>570</div></td></tr><tr><td style="font-weight:bold;vertical-align:top">http_content_type</td><td valign="top">:</td><td><div>multipart/form-data; boundary=----WebKitFormBoundary6l6lo3orJkae6cwv</div></td></tr><tr><td style="font-weight:bold;vertical-align:top">http_cookie</td><td valign="top">:</td><td><div>session_id_welcome=127.0.0.1-592db013-3ce5-434e-8165-d4772bd1a38f; session_id_admin=127.0.0.1-e5515cd1-6029-4e71-afa6-48b400cc12d6; session_id_notes=127.0.0.1-b312cdb7-65df-47e9-8ef5-cf1c04c3455e</div></td></tr><tr><td style="font-weight:bold;vertical-align:top">http_host</td><td valign="top">:</td><td><div>127.0.0.1:8000</div></td></tr><tr><td style="font-weight:bold;vertical-align:top">http_origin</td><td valign="top">:</td><td><div>http://127.0.0.1:8000</div></td></tr><tr><td style="font-weight:bold;vertical-align:top">http_referer</td><td valign="top">:</td><td><div>http://127.0.0.1:8000/notes/default/crtask</div></td></tr><tr><td style="font-weight:bold;vertical-align:top">http_user_agent</td><td valign="top">:</td><td><div>Mozilla/5.0 (X11; Linux i686) AppleWebKit/537.31 (KHTML, like Gecko) Chrome/26.0.1410.43 Safari/537.31</div></td></tr><tr><td style="font-weight:bold;vertical-align:top">is_jython</td><td valign="top">:</td><td><div>False</div></td></tr><tr><td style="font-weight:bold;vertical-align:top">is_pypy</td><td valign="top">:</td><td><div>False</div></td></tr><tr><td style="font-weight:bold;vertical-align:top">local_hosts</td><td valign="top">:</td><td><div><table><tr><td><div>::1</div></td></tr><tr><td><div>127.0.1.1</div></td></tr><tr><td><div>::ffff:127.0.0.1</div></td></tr><tr><td><div>127.0.0.1</div></td></tr><tr><td><div>samfisher-Inspiron-7520</div></td></tr></table></div></td></tr><tr><td style="font-weight:bold;vertical-align:top">path_info</td><td valign="top">:</td><td><div>/notes/default/crtask</div></td></tr><tr><td style="font-weight:bold;vertical-align:top">query_string</td><td valign="top">:</td><td><div></div></td></tr><tr><td style="font-weight:bold;vertical-align:top">remote_addr</td><td valign="top">:</td><td><div>127.0.0.1</div></td></tr><tr><td style="font-weight:bold;vertical-align:top">remote_port</td><td valign="top">:</td><td><div>50082</div></td></tr><tr><td style="font-weight:bold;vertical-align:top">request_method</td><td valign="top">:</td><td><div>POST</div></td></tr><tr><td style="font-weight:bold;vertical-align:top">request_uri</td><td valign="top">:</td><td><div>/notes/default/crtask</div></td></tr><tr><td style="font-weight:bold;vertical-align:top">script_name</td><td valign="top">:</td><td><div></div></td></tr><tr><td style="font-weight:bold;vertical-align:top">server_name</td><td valign="top">:</td><td><div>samfisher-Inspiron-7520</div></td></tr><tr><td style="font-weight:bold;vertical-align:top">server_port</td><td valign="top">:</td><td><div>8000</div></td></tr><tr><td style="font-weight:bold;vertical-align:top">server_protocol</td><td valign="top">:</td><td><div>HTTP/1.1</div></td></tr><tr><td style="font-weight:bold;vertical-align:top">server_software</td><td valign="top">:</td><td><div>Rocket 1.2.6</div></td></tr><tr><td style="font-weight:bold;vertical-align:top">web2py_path</td><td valign="top">:</td><td><div>/home/samfisher/iiith/Semester 2/web2py</div></td></tr><tr><td style="font-weight:bold;vertical-align:top">web2py_version</td><td valign="top">:</td><td><div><table><tr><td><div>2</div></td></tr><tr><td><div>4</div></td></tr><tr><td><div>2</div></td></tr><tr><td><div>stable</div></td></tr><tr><td><div>datetime.datetime(2013, 3, 4, 3, 26, 21)</div></td></tr></table></div></td></tr><tr><td style="font-weight:bold;vertical-align:top">wsgi_errors</td><td valign="top">:</td><td><div>&lt;open file &#x27;&lt;stderr&gt;&#x27;, mode &#x27;w&#x27; at 0xb73530d0&gt;</div></td></tr><tr><td style="font-weight:bold;vertical-align:top">wsgi_file_wrapper</td><td valign="top">:</td><td><div>&lt;class wsgiref.util.FileWrapper at 0xa693e6c&gt;</div></td></tr><tr><td style="font-weight:bold;vertical-align:top">wsgi_input</td><td valign="top">:</td><td><div>&lt;socket._fileobject object at 0xabf84f2c&gt;</div></td></tr><tr><td style="font-weight:bold;vertical-align:top">wsgi_multiprocess</td><td valign="top">:</td><td><div>False</div></td></tr><tr><td style="font-weight:bold;vertical-align:top">wsgi_multithread</td><td valign="top">:</td><td><div>True</div></td></tr><tr><td style="font-weight:bold;vertical-align:top">wsgi_run_once</td><td valign="top">:</td><td><div>False</div></td></tr><tr><td style="font-weight:bold;vertical-align:top">wsgi_url_scheme</td><td valign="top">:</td><td><div>http</div></td></tr><tr><td style="font-weight:bold;vertical-align:top">wsgi_version</td><td valign="top">:</td><td><div><table><tr><td><div>1</div></td></tr><tr><td><div>0</div></td></tr></table></div></td></tr></table></div></td></tr><tr><td style="font-weight:bold;vertical-align:top">extension</td><td valign="top">:</td><td><div>html</div></td></tr><tr><td style="font-weight:bold;vertical-align:top">folder</td><td valign="top">:</td><td><div>/home/samfisher/iiith/Semester 2/web2py/applications/notes/</div></td></tr><tr><td style="font-weight:bold;vertical-align:top">function</td><td valign="top">:</td><td><div>crtask</div></td></tr><tr><td style="font-weight:bold;vertical-align:top">get_vars</td><td valign="top">:</td><td><div><table></table></div></td></tr><tr><td style="font-weight:bold;vertical-align:top">global_settings</td><td valign="top">:</td><td><div><table><tr><td style="font-weight:bold;vertical-align:top">app_folders</td><td valign="top">:</td><td><div>set([&#x27;/home/samfisher/iiith/Semester 2/web2py/applications/notes/&#x27;, &#x27;/home/samfisher/iiith/Semester 2/web2py/applications/admin/&#x27;, &#x27;/home/samfisher/iiith/Semester 2/web2py/applications/welcome/&#x27;])</div></td></tr><tr><td style="font-weight:bold;vertical-align:top">applications_parent</td><td valign="top">:</td><td><div>/home/samfisher/iiith/Semester 2/web2py</div></td></tr><tr><td style="font-weight:bold;vertical-align:top">cmd_args</td><td valign="top">:</td><td><div><table></table></div></td></tr><tr><td style="font-weight:bold;vertical-align:top">cmd_options</td><td valign="top">:</td><td><div>&lt;Values at 0xa6ecc4c: {&#x27;verbose&#x27;: False, &#x27;ip&#x27;: &#x27;127.0.0.1&#x27;, &#x27;with_scheduler&#x27;: False, &#x27;ips&#x27;: [], &#x27;shutdown_timeout&#x27;: 5, &#x27;taskbar&#x27;: False, &#x27;port&#x27;: 8000, &#x27;maxthreads&#x27;: None, &#x27;softcron&#x27;: False, &#x27;server_name&#x27;: &#x27;samfisher-Inspiron-7520&#x27;, &#x27;bpython&#x27;: False, &#x27;nogui&#x27;: False, &#x27;pid_filename&#x27;: &#x27;httpserver.pid&#x27;, &#x27;extcron&#x27;: False, &#x27;runcron&#x27;: False, &#x27;run_system_tests&#x27;: False, &#x27;test&#x27;: None, &#x27;folder&#x27;: &#x27;/home/samfisher/iiith/Semester 2/web2py&#x27;, &#x27;config&#x27;: &#x27;&#x27;, &#x27;import_models&#x27;: False, &#x27;winservice&#x27;: &#x27;&#x27;, &#x27;shell&#x27;: None, &#x27;run&#x27;: &#x27;&#x27;, &#x27;log_filename&#x27;: &#x27;httpserver.log&#x27;, &#x27;debuglevel&#x27;: 30, &#x27;args&#x27;: [&#x27;&#x27;], &#x27;socket_timeout&#x27;: 5, &#x27;ssl_ca_certificate&#x27;: None, &#x27;scheduler&#x27;: None, &#x27;profiler_filename&#x27;: None, &#x27;ssl_private_key&#x27;: &#x27;&#x27;, &#x27;scheduler_groups&#x27;: None, &#x27;password&#x27;: &#x27;&lt;ask&gt;&#x27;, &#x27;request_queue_size&#x27;: 5, &#x27;ssl_certificate&#x27;: &#x27;&#x27;, &#x27;cronjob&#x27;: False, &#x27;numthreads&#x27;: None, &#x27;quiet&#x27;: False, &#x27;interfaces&#x27;: None, &#x27;minthreads&#x27;: None, &#x27;timeout&#x27;: 10, &#x27;plain&#x27;: False, &#x27;nobanner&#x27;: False}&gt;</div></td></tr><tr><td style="font-weight:bold;vertical-align:top">db_sessions</td><td valign="top">:</td><td><div>set([])</div></td></tr><tr><td style="font-weight:bold;vertical-align:top">debugging</td><td valign="top">:</td><td><div>False</div></td></tr><tr><td style="font-weight:bold;vertical-align:top">gluon_parent</td><td valign="top">:</td><td><div>/home/samfisher/iiith/Semester 2/web2py</div></td></tr><tr><td style="font-weight:bold;vertical-align:top">is_jython</td><td valign="top">:</td><td><div>False</div></td></tr><tr><td style="font-weight:bold;vertical-align:top">is_pypy</td><td valign="top">:</td><td><div>False</div></td></tr><tr><td style="font-weight:bold;vertical-align:top">local_hosts</td><td valign="top">:</td><td><div><table><tr><td><div>::1</div></td></tr><tr><td><div>127.0.1.1</div></td></tr><tr><td><div>::ffff:127.0.0.1</div></td></tr><tr><td><div>127.0.0.1</div></td></tr><tr><td><div>samfisher-Inspiron-7520</div></td></tr></table></div></td></tr><tr><td style="font-weight:bold;vertical-align:top">web2py_version</td><td valign="top">:</td><td><div><table><tr><td><div>2</div></td></tr><tr><td><div>4</div></td></tr><tr><td><div>2</div></td></tr><tr><td><div>stable</div></td></tr><tr><td><div>datetime.datetime(2013, 3, 4, 3, 26, 21)</div></td></tr></table></div></td></tr></table></div></td></tr><tr><td style="font-weight:bold;vertical-align:top">is_https</td><td valign="top">:</td><td><div>False</div></td></tr><tr><td style="font-weight:bold;vertical-align:top">is_local</td><td valign="top">:</td><td><div>True</div></td></tr><tr><td style="font-weight:bold;vertical-align:top">is_restful</td><td valign="top">:</td><td><div>False</div></td></tr><tr><td style="font-weight:bold;vertical-align:top">now</td><td valign="top">:</td><td><div>datetime.datetime(2013, 4, 15, 3, 44, 45, 199758)</div></td></tr><tr><td style="font-weight:bold;vertical-align:top">post_vars</td><td valign="top">:</td><td><div><table><tr><td style="font-weight:bold;vertical-align:top">des</td><td valign="top">:</td><td><div>1</div></td></tr><tr><td style="font-weight:bold;vertical-align:top">pen</td><td valign="top">:</td><td><div>2013-04-24</div></td></tr><tr><td style="font-weight:bold;vertical-align:top">title</td><td valign="top">:</td><td><div>1</div></td></tr></table></div></td></tr><tr><td style="font-weight:bold;vertical-align:top">raw_args</td><td valign="top">:</td><td><div></div></td></tr><tr><td style="font-weight:bold;vertical-align:top">raw_extension</td><td valign="top">:</td><td><div>None</div></td></tr><tr><td style="font-weight:bold;vertical-align:top">url</td><td valign="top">:</td><td><div>/notes/default/crtask</div></td></tr><tr><td style="font-weight:bold;vertical-align:top">utcnow</td><td valign="top">:</td><td><div>datetime.datetime(2013, 4, 14, 22, 14, 45, 199778)</div></td></tr><tr><td style="font-weight:bold;vertical-align:top">uuid</td><td valign="top">:</td><td><div>notes/127.0.0.1.2013-04-15.03-44-45.c773f5c2-29c1-46e1-a669-cf9dc7bec78b</div></td></tr><tr><td style="font-weight:bold;vertical-align:top">vars</td><td valign="top">:</td><td><div><table><tr><td style="font-weight:bold;vertical-align:top">des</td><td valign="top">:</td><td><div>1</div></td></tr><tr><td style="font-weight:bold;vertical-align:top">pen</td><td valign="top">:</td><td><div>2013-04-24</div></td></tr><tr><td style="font-weight:bold;vertical-align:top">title</td><td valign="top">:</td><td><div>1</div></td></tr></table></div></td></tr><tr><td style="font-weight:bold;vertical-align:top">wsgi</td><td valign="top">:</td><td><div><table><tr><td style="font-weight:bold;vertical-align:top">environ</td><td valign="top">:</td><td><div><table><tr><td style="font-weight:bold;vertical-align:top">CONTENT_LENGTH</td><td valign="top">:</td><td><div>570</div></td></tr><tr><td style="font-weight:bold;vertical-align:top">CONTENT_TYPE</td><td valign="top">:</td><td><div>multipart/form-data; boundary=----WebKitFormBoundary6l6lo3orJkae6cwv</div></td></tr><tr><td style="font-weight:bold;vertical-align:top">HTTP_ACCEPT</td><td valign="top">:</td><td><div>text/html,application/xhtml+xml,application/xml;q=0.9,*/*;q=0.8</div></td></tr><tr><td style="font-weight:bold;vertical-align:top">HTTP_ACCEPT_CHARSET</td><td valign="top">:</td><td><div>ISO-8859-1,utf-8;q=0.7,*;q=0.3</div></td></tr><tr><td style="font-weight:bold;vertical-align:top">HTTP_ACCEPT_ENCODING</td><td valign="top">:</td><td><div>gzip,deflate,sdch</div></td></tr><tr><td style="font-weight:bold;vertical-align:top">HTTP_ACCEPT_LANGUAGE</td><td valign="top">:</td><td><div>en-US,en;q=0.8</div></td></tr><tr><td style="font-weight:bold;vertical-align:top">HTTP_CACHE_CONTROL</td><td valign="top">:</td><td><div>max-age=0</div></td></tr><tr><td style="font-weight:bold;vertical-align:top">HTTP_CONNECTION</td><td valign="top">:</td><td><div>keep-alive</div></td></tr><tr><td style="font-weight:bold;vertical-align:top">HTTP_CONTENT_LENGTH</td><td valign="top">:</td><td><div>570</div></td></tr><tr><td style="font-weight:bold;vertical-align:top">HTTP_CONTENT_TYPE</td><td valign="top">:</td><td><div>multipart/form-data; boundary=----WebKitFormBoundary6l6lo3orJkae6cwv</div></td></tr><tr><td style="font-weight:bold;vertical-align:top">HTTP_COOKIE</td><td valign="top">:</td><td><div>session_id_welcome=127.0.0.1-592db013-3ce5-434e-8165-d4772bd1a38f; session_id_admin=127.0.0.1-e5515cd1-6029-4e71-afa6-48b400cc12d6; session_id_notes=127.0.0.1-b312cdb7-65df-47e9-8ef5-cf1c04c3455e</div></td></tr><tr><td style="font-weight:bold;vertical-align:top">HTTP_HOST</td><td valign="top">:</td><td><div>127.0.0.1:8000</div></td></tr><tr><td style="font-weight:bold;vertical-align:top">HTTP_ORIGIN</td><td valign="top">:</td><td><div>http://127.0.0.1:8000</div></td></tr><tr><td style="font-weight:bold;vertical-align:top">HTTP_REFERER</td><td valign="top">:</td><td><div>http://127.0.0.1:8000/notes/default/crtask</div></td></tr><tr><td style="font-weight:bold;vertical-align:top">HTTP_USER_AGENT</td><td valign="top">:</td><td><div>Mozilla/5.0 (X11; Linux i686) AppleWebKit/537.31 (KHTML, like Gecko) Chrome/26.0.1410.43 Safari/537.31</div></td></tr><tr><td style="font-weight:bold;vertical-align:top">PATH_INFO</td><td valign="top">:</td><td><div>/notes/default/crtask</div></td></tr><tr><td style="font-weight:bold;vertical-align:top">QUERY_STRING</td><td valign="top">:</td><td><div></div></td></tr><tr><td style="font-weight:bold;vertical-align:top">REMOTE_ADDR</td><td valign="top">:</td><td><div>127.0.0.1</div></td></tr><tr><td style="font-weight:bold;vertical-align:top">REMOTE_PORT</td><td valign="top">:</td><td><div>50082</div></td></tr><tr><td style="font-weight:bold;vertical-align:top">REQUEST_METHOD</td><td valign="top">:</td><td><div>POST</div></td></tr><tr><td style="font-weight:bold;vertical-align:top">REQUEST_URI</td><td valign="top">:</td><td><div>/notes/default/crtask</div></td></tr><tr><td style="font-weight:bold;vertical-align:top">SCRIPT_NAME</td><td valign="top">:</td><td><div></div></td></tr><tr><td style="font-weight:bold;vertical-align:top">SERVER_NAME</td><td valign="top">:</td><td><div>samfisher-Inspiron-7520</div></td></tr><tr><td style="font-weight:bold;vertical-align:top">SERVER_PORT</td><td valign="top">:</td><td><div>8000</div></td></tr><tr><td style="font-weight:bold;vertical-align:top">SERVER_PROTOCOL</td><td valign="top">:</td><td><div>HTTP/1.1</div></td></tr><tr><td style="font-weight:bold;vertical-align:top">SERVER_SOFTWARE</td><td valign="top">:</td><td><div>Rocket 1.2.6</div></td></tr><tr><td style="font-weight:bold;vertical-align:top">wsgi.errors</td><td valign="top">:</td><td><div>&lt;open file &#x27;&lt;stderr&gt;&#x27;, mode &#x27;w&#x27; at 0xb73530d0&gt;</div></td></tr><tr><td style="font-weight:bold;vertical-align:top">wsgi.file_wrapper</td><td valign="top">:</td><td><div>&lt;class wsgiref.util.FileWrapper at 0xa693e6c&gt;</div></td></tr><tr><td style="font-weight:bold;vertical-align:top">wsgi.input</td><td valign="top">:</td><td><div>&lt;open file &#x27;&lt;fdopen&gt;&#x27;, mode &#x27;w+b&#x27; at 0xac4469c0&gt;</div></td></tr><tr><td style="font-weight:bold;vertical-align:top">wsgi.multiprocess</td><td valign="top">:</td><td><div>False</div></td></tr><tr><td style="font-weight:bold;vertical-align:top">wsgi.multithread</td><td valign="top">:</td><td><div>True</div></td></tr><tr><td style="font-weight:bold;vertical-align:top">wsgi.run_once</td><td valign="top">:</td><td><div>False</div></td></tr><tr><td style="font-weight:bold;vertical-align:top">wsgi.url_scheme</td><td valign="top">:</td><td><div>http</div></td></tr><tr><td style="font-weight:bold;vertical-align:top">wsgi.version</td><td valign="top">:</td><td><div>1</div></td></tr></table></div></td></tr></table></div></td></tr></table></div>'
tRp62
sS'frames'
p63
(lp64
(dp65
S'file'
p66
S'/home/samfisher/iiith/Semester 2/web2py/gluon/restricted.py'
p67
sS'dump'
p68
(dp69
S'environment'
p70
S"{'A': <class 'gluon.html.A'>, 'Auth': <class 'gluon.tools.Auth'>, 'B': <class 'gluon.html.B'>, 'BEAUTIFY': <class 'gluon.html.BEAUTIFY'>, 'BODY': <class 'gluon.html.BODY'>, 'BR': <class 'gluon.html.BR'>, 'BUTTON': <class 'gluon.html.BUTTON'>, 'CAT': <class 'gluon.html.CAT'>, 'CENTER': <class 'gluon.html.CENTER'>, 'CLEANUP': <class 'gluon.validators.CLEANUP'>, ...}"
p71
sS'ccode'
p72
S'<code object <module> at 0xab75e890, file "/home...plications/notes/controllers/default.py", line 6>'
p73
ssS'lnum'
p74
I212
sS'lines'
p75
(dp76
I207
S'    try:'
p77
sI208
S'        if isinstance(code, types.CodeType):'
p78
sI209
S'            ccode = code'
p79
sI210
S'        else:'
p80
sI211
S'            ccode = compile2(code, layer)'
p81
sI212
S'        exec ccode in environment'
p82
sI213
S'    except HTTP:'
p83
sI214
S'        raise'
p84
sI215
S'    except RestrictedError:'
p85
sI216
S'        # do not encapsulate (obfuscate) the original RestrictedError'
p86
ssS'call'
p87
S"(code='#search by date \\n#email sending(send a copy and ...elect()\\n\\nresponse._vars=response._caller(crtask)\\n', environment={'A': <class 'gluon.html.A'>, 'Auth': <class 'gluon.tools.Auth'>, 'B': <class 'gluon.html.B'>, 'BEAUTIFY': <class 'gluon.html.BEAUTIFY'>, 'BODY': <class 'gluon.html.BODY'>, 'BR': <class 'gluon.html.BR'>, 'BUTTON': <class 'gluon.html.BUTTON'>, 'CAT': <class 'gluon.html.CAT'>, 'CENTER': <class 'gluon.html.CENTER'>, 'CLEANUP': <class 'gluon.validators.CLEANUP'>, ...}, layer='/home/samfisher/iiith/Semester 2/web2py/applications/notes/controllers/default.py')"
p88
sS'func'
p89
S'restricted'
p90
sa(dp91
g66
S'/home/samfisher/iiith/Semester 2/web2py/applications/notes/controllers/default.py'
p92
sg68
(dp93
sg74
I440
sg75
(dp94
I429
S"\t\t\tapplication_name='notes/appadmin',"
p95
sI430
S"\t\t\ttask_name='Task 1',"
p96
sI431
S"\t\t\tgroup_name='main',"
p97
sI432
S"\t\t\tstatus='QUEUED',"
p98
sI433
S"\t\t\tfunction_name='f',"
p99
sI434
S'\t\t\tenabled=True,'
p100
sI435
S'\t\t\tperiod=60,'
p101
sI436
S'\t\t\tstart_time=request.now,'
p102
sI437
S'\t\t\targs=gluon.contrib.simplejson.dumps(a))'
p103
sI438
S'#a=db((db.note.title==title)& (auth.user.email==db.note.authoris[1:])).select()'
p104
ssg87
S'()'
p105
sg89
S'<module>'
p106
sa(dp107
g66
S'/home/samfisher/iiith/Semester 2/web2py/gluon/globals.py'
p108
sg68
(dp109
S'self'
p110
S'undefined'
p111
sS'f'
S'<function crtask>'
p112
ssg74
I193
sg75
(dp113
I192
S'        self._vars = None'
p114
sI193
S'        self._caller = lambda f: f()'
p115
sI194
S'        self._view_environment = None'
p116
sI195
S'        self._custom_commit = None'
p117
sI196
S'        self._custom_rollback = None'
p118
sI197
S''
sI188
S'        self.menu = []             # used by the default view layout'
p119
sI189
S'        self.files = []            # used by web2py_ajax.html'
p120
sI190
S'        self.generic_patterns = []  # patterns to allow generic views'
p121
sI191
S"        self.delimiters = ('{{', '}}')"
p122
ssg87
S'(f=<function crtask>)'
p123
sg89
S'<lambda>'
p124
sa(dp125
g66
S'/home/samfisher/iiith/Semester 2/web2py/gluon/tools.py'
p126
sg68
(dp127
S'action'
p128
S'<function crtask>'
p129
sS'a'
S'()'
p130
sS'b'
g21
ssg74
I2942
sg75
(dp131
I2944
S'            f.__name__ = action.__name__'
p132
sI2945
S'            f.__dict__.update(action.__dict__)'
p133
sI2946
S'            return f'
p134
sI2937
S'                    flag = condition'
p135
sI2938
S'                if not flag:'
p136
sI2939
S'                    current.session.flash = self.messages.access_denied'
p137
sI2940
S'                    return call_or_redirect('
p138
sI2941
S'                        self.settings.on_failed_authorization)'
p139
sI2942
S'                return action(*a, **b)'
p140
sI2943
S'            f.__doc__ = action.__doc__'
p141
ssg87
S'(*a=(), **b={})'
p142
sg89
S'f'
sa(dp143
g66
S'/home/samfisher/iiith/Semester 2/web2py/applications/notes/controllers/default.py'
p144
sg68
(dp145
S'builtinFalse'
p146
S'False'
p147
sS'form.vars'
p148
S"<Storage {'pen': datetime.date(2013, 4, 24), 'des': '1', 'id': None, 'title': '1'}>"
p149
sS'db.task.insert'
p150
S'<bound method Table.insert of <Table task (id,title,description,pending,done,authoris)>>'
p151
sS'form'
p152
S'<gluon.sqlhtml.SQLFORM object>'
p153
sS'title'
p154
g111
sS'auth.user'
p155
S"<Row {'first_name': 'a', 'last_name': 'b', 'rese...fications': 0, 'registration_key': '', 'id': 72}>"
p156
sS'form.vars.pen'
p157
S'datetime.date(2013, 4, 24)'
p158
sS'global auth'
p159
S'<gluon.tools.Auth object>'
p160
sS'auth.user.email'
p161
S"'a@b.com'"
p162
sS'authoris'
p163
g111
sS'db.task'
p164
S'<Table task (id,title,description,pending,done,authoris)>'
p165
sS'form.vars.des'
p166
S"'1'"
p167
sS'global db'
p168
S'<DAL uri="sqlite://storage.sqlite">'
p169
sS'done'
p170
g111
sS'form.vars.title'
p171
S"'1'"
p172
sS'pending'
p173
g111
sS'description'
p174
g111
ssg74
I302
sg75
(dp175
I297
S"\t\t\tsession.msg='N'"
p176
sI298
S"\t\t\tredirect(URL('crtask'))"
p177
sI299
S'\t\tif form.vars.pen<datetime.date.today():'
p178
sI300
S"\t\t\tsession.msg='T'"
p179
sI301
S"\t\t\tredirect(URL('crtask'))"
p180
sI302
S'\t\tdb.task.insert(title=form.vars.title,description=form.vars.des,pending=form.vars.pen,done=False,authoris=auth.user.email)'
p181
sI303
S"\t\tredirect(URL('index'))"
p182
sI304
S'\treturn dict(form=form)'
p183
sI305
S'@auth.requires_login()'
p184
sI306
S'def shtask():'
p185
ssg87
S'()'
p186
sg89
S'crtask'
p187
sa(dp188
g66
S'/home/samfisher/iiith/Semester 2/web2py/gluon/dal.py'
p189
sg68
(dp190
S'self._listify'
p191
S'<bound method Table._listify of <Table task (id,title,description,pending,done,authoris)>>'
p192
sS'fields'
p193
S"{'authoris': 'a@b.com', 'description': '1', 'done': False, 'pending': datetime.date(2013, 4, 24), 'title': '1'}"
p194
sS'self'
p195
S'<Table task (id,title,description,pending,done,authoris)>'
p196
sS'ret'
p197
g111
sS'self._db._adapter'
p198
S'<gluon.dal.SQLiteAdapter object>'
p199
sS'self._db._adapter.insert'
p200
S'<bound method SQLiteAdapter.insert of <gluon.dal.SQLiteAdapter object>>'
p201
sS'self._db'
p202
S'<DAL uri="sqlite://storage.sqlite">'
p203
ssg74
I8442
sg75
(dp204
I8437
S''
sI8438
S'    def insert(self, **fields):'
p205
sI8439
S'        fields = self._defaults(fields)'
p206
sI8440
S'        self._attempt_upload(fields)'
p207
sI8441
S'        if any(f(fields) for f in self._before_insert): return 0'
p208
sI8442
S'        ret =  self._db._adapter.insert(self, self._listify(fields))'
p209
sI8443
S'        if ret and self._after_insert:'
p210
sI8444
S'            fields = Row(fields)'
p211
sI8445
S'            [f(fields,ret) for f in self._after_insert]'
p212
sI8446
S'        return ret'
p213
ssg87
S"(self=<Table task (id,title,description,pending,done,authoris)>, **fields={'authoris': 'a@b.com', 'description': '1', 'done': False, 'pending': datetime.date(2013, 4, 24), 'title': '1'})"
p214
sg89
S'insert'
p215
sa(dp216
g66
S'/home/samfisher/iiith/Semester 2/web2py/gluon/dal.py'
p217
sg68
(dp218
S'e'
S"IntegrityError('column title is not unique',)"
p219
ssg74
I1206
sg75
(dp220
I1201
S'            self.execute(query)'
p221
sI1202
S'        except Exception:'
p222
sI1203
S'            e = sys.exc_info()[1]'
p223
sI1204
S'            if isinstance(e,self.integrity_error_class()):'
p224
sI1205
S'                return None'
p225
sI1206
S'            raise e'
p226
sI1207
S"        if hasattr(table,'_primarykey'):"
p227
sI1208
S'            return dict([(k[0].name, k[1]) for k in fields \\'
p228
sI1209
S'                             if k[0].name in table._primarykey])'
p229
sI1210
S'        id = self.lastrowid(table)'
p230
ssg87
S"(self=<gluon.dal.SQLiteAdapter object>, table=<Table task (id,title,description,pending,done,authoris)>, fields=[(<gluon.dal.Field object>, '1'), (<gluon.dal.Field object>, False), (<gluon.dal.Field object>, 'a@b.com'), (<gluon.dal.Field object>, datetime.date(2013, 4, 24)), (<gluon.dal.Field object>, '1')])"
p231
sg89
g215
sasS'pyver'
p232
S'Python 2.7.3: /usr/bin/python (prefix: /usr)'
p233
sS'session'
p234
g61
(S'ss\x0b\x00\x00<div><table><tr><td style="font-weight:bold;vertical-align:top">auth</td><td valign="top">:</td><td><div><table><tr><td style="font-weight:bold;vertical-align:top">expiration</td><td valign="top">:</td><td><div>3600</div></td></tr><tr><td style="font-weight:bold;vertical-align:top">hmac_key</td><td valign="top">:</td><td><div>6005a94d-6ac4-4c2d-9b8d-f241a604a491</div></td></tr><tr><td style="font-weight:bold;vertical-align:top">last_visit</td><td valign="top">:</td><td><div>datetime.datetime(2013, 4, 15, 3, 44, 30, 772387)</div></td></tr><tr><td style="font-weight:bold;vertical-align:top">remember</td><td valign="top">:</td><td><div>False</div></td></tr><tr><td style="font-weight:bold;vertical-align:top">user</td><td valign="top">:</td><td><div><table><tr><td style="font-weight:bold;vertical-align:top">Country</td><td valign="top">:</td><td><div>India</div></td></tr><tr><td style="font-weight:bold;vertical-align:top">Notifications</td><td valign="top">:</td><td><div>0</div></td></tr><tr><td style="font-weight:bold;vertical-align:top">email</td><td valign="top">:</td><td><div>a@b.com</div></td></tr><tr><td style="font-weight:bold;vertical-align:top">first_name</td><td valign="top">:</td><td><div>a</div></td></tr><tr><td style="font-weight:bold;vertical-align:top">id</td><td valign="top">:</td><td><div>72</div></td></tr><tr><td style="font-weight:bold;vertical-align:top">last_name</td><td valign="top">:</td><td><div>b</div></td></tr><tr><td style="font-weight:bold;vertical-align:top">notes</td><td valign="top">:</td><td><div></div></td></tr><tr><td style="font-weight:bold;vertical-align:top">pic</td><td valign="top">:</td><td><div>auth_user.pic.8efb390d274f6070.53637265656e73686f742066726f6d20323031332d30342d30322031383a30313a35382e706e67.png</div></td></tr><tr><td style="font-weight:bold;vertical-align:top">registration_id</td><td valign="top">:</td><td><div></div></td></tr><tr><td style="font-weight:bold;vertical-align:top">registration_key</td><td valign="top">:</td><td><div></div></td></tr><tr><td style="font-weight:bold;vertical-align:top">reset_password_key</td><td valign="top">:</td><td><div></div></td></tr></table></div></td></tr><tr><td style="font-weight:bold;vertical-align:top">user_groups</td><td valign="top">:</td><td><div><table><tr><td style="font-weight:bold;vertical-align:top">72</td><td valign="top">:</td><td><div>user_72</div></td></tr></table></div></td></tr></table></div></td></tr><tr><td style="font-weight:bold;vertical-align:top">flash</td><td valign="top">:</td><td><div>None</div></td></tr><tr><td style="font-weight:bold;vertical-align:top">last_orderby</td><td valign="top">:</td><td><div>None</div></td></tr><tr><td style="font-weight:bold;vertical-align:top">last_query</td><td valign="top">:</td><td><div>db.task.id&gt;0</div></td></tr><tr><td style="font-weight:bold;vertical-align:top">msg</td><td valign="top">:</td><td><div>Y</div></td></tr></table></div>'
tRp235
sS'etype'
p236
S"<class 'sqlite3.IntegrityError'>"
p237
sS'date'
p238
S'Mon Apr 15 03:44:45 2013'
p239
sS'response'
p240
g61
(S's \x1e\x00\x00<div><table><tr><td style="font-weight:bold;vertical-align:top">body</td><td valign="top">:</td><td><div>&lt;cStringIO.StringO object at 0xac73fe20&gt;</div></td></tr><tr><td style="font-weight:bold;vertical-align:top">cookies</td><td valign="top">:</td><td><div><table><tr><td style="font-weight:bold;vertical-align:top">session_id_notes</td><td valign="top">:</td><td><div>127.0.0.1-b312cdb7-65df-47e9-8ef5-cf1c04c3455e<table><tr><td style="font-weight:bold;vertical-align:top">comment</td><td valign="top">:</td><td><div></div></td></tr><tr><td style="font-weight:bold;vertical-align:top">domain</td><td valign="top">:</td><td><div></div></td></tr><tr><td style="font-weight:bold;vertical-align:top">expires</td><td valign="top">:</td><td><div></div></td></tr><tr><td style="font-weight:bold;vertical-align:top">httponly</td><td valign="top">:</td><td><div></div></td></tr><tr><td style="font-weight:bold;vertical-align:top">max-age</td><td valign="top">:</td><td><div></div></td></tr><tr><td style="font-weight:bold;vertical-align:top">path</td><td valign="top">:</td><td><div>/</div></td></tr><tr><td style="font-weight:bold;vertical-align:top">secure</td><td valign="top">:</td><td><div></div></td></tr><tr><td style="font-weight:bold;vertical-align:top">version</td><td valign="top">:</td><td><div></div></td></tr></table></div></td></tr></table></div></td></tr><tr><td style="font-weight:bold;vertical-align:top">delimiters</td><td valign="top">:</td><td><div><table><tr><td><div>{{</div></td></tr><tr><td><div>}}</div></td></tr></table></div></td></tr><tr><td style="font-weight:bold;vertical-align:top">files</td><td valign="top">:</td><td><div><table></table></div></td></tr><tr><td style="font-weight:bold;vertical-align:top">flash</td><td valign="top">:</td><td><div>Success!</div></td></tr><tr><td style="font-weight:bold;vertical-align:top">generic_patterns</td><td valign="top">:</td><td><div><table><tr><td><div>*</div></td></tr></table></div></td></tr><tr><td style="font-weight:bold;vertical-align:top">google_analytics_id</td><td valign="top">:</td><td><div>None</div></td></tr><tr><td style="font-weight:bold;vertical-align:top">headers</td><td valign="top">:</td><td><div><table><tr><td style="font-weight:bold;vertical-align:top">X-Powered-By</td><td valign="top">:</td><td><div>web2py</div></td></tr></table></div></td></tr><tr><td style="font-weight:bold;vertical-align:top">logo</td><td valign="top">:</td><td><div><a class="brand" href="/notes/default/index"><b>Home !</b></a></div></td></tr><tr><td style="font-weight:bold;vertical-align:top">menu</td><td valign="top">:</td><td><div><table><tr><td><div><table><tr><td><div>Notes</div></td></tr><tr><td><div>False</div></td></tr><tr><td><div>/notes/default/index</div></td></tr><tr><td><div><table><tr><td><div><table><tr><td><div>Create</div></td></tr><tr><td><div>False</div></td></tr><tr><td><div>/notes/default/create</div></td></tr></table></div></td></tr><tr><td><div><table><tr><td><div>Edit</div></td></tr><tr><td><div>False</div></td></tr><tr><td><div>/notes/default/edshow</div></td></tr></table></div></td></tr><tr><td><div><table><tr><td><div>Delete</div></td></tr><tr><td><div>False</div></td></tr><tr><td><div>/notes/default/eddel</div></td></tr></table></div></td></tr></table></div></td></tr></table></div></td></tr><tr><td><div><table><tr><td><div>Tasks</div></td></tr><tr><td><div>False</div></td></tr><tr><td><div>/notes/default/index</div></td></tr><tr><td><div><table><tr><td><div><table><tr><td><div>Create</div></td></tr><tr><td><div>False</div></td></tr><tr><td><div>/notes/default/crtask</div></td></tr></table></div></td></tr><tr><td><div><table><tr><td><div>Edit</div></td></tr><tr><td><div>False</div></td></tr><tr><td><div>/notes/default/taskedshow</div></td></tr></table></div></td></tr><tr><td><div><table><tr><td><div>Delete</div></td></tr><tr><td><div>False</div></td></tr><tr><td><div>/notes/default/taskshdel</div></td></tr></table></div></td></tr></table></div></td></tr></table></div></td></tr><tr><td><div><table><tr><td><div>Search</div></td></tr><tr><td><div>False</div></td></tr><tr><td><div>/notes/default/searchinp</div></td></tr><tr><td><div><table><tr><td><div><table><tr><td><div>By Title</div></td></tr><tr><td><div>False</div></td></tr><tr><td><div>/notes/default/asearchtit</div></td></tr></table></div></td></tr><tr><td><div><table><tr><td><div>By Tags</div></td></tr><tr><td><div>False</div></td></tr><tr><td><div>/notes/default/asearchtag</div></td></tr></table></div></td></tr></table></div></td></tr></table></div></td></tr><tr><td><div><table><tr><td><div>View by Tags</div></td></tr><tr><td><div>False</div></td></tr><tr><td><div>/notes/default/litetag</div></td></tr></table></div></td></tr><tr><td><div><table><tr><td><div>Help</div></td></tr><tr><td><div>False</div></td></tr><tr><td><div>/notes/default/help</div></td></tr></table></div></td></tr></table></div></td></tr><tr><td style="font-weight:bold;vertical-align:top">meta</td><td valign="top">:</td><td><div><table><tr><td style="font-weight:bold;vertical-align:top">author</td><td valign="top">:</td><td><div>Your Name &lt;you@example.com&gt;</div></td></tr><tr><td style="font-weight:bold;vertical-align:top">description</td><td valign="top">:</td><td><div>a cool new app</div></td></tr><tr><td style="font-weight:bold;vertical-align:top">generator</td><td valign="top">:</td><td><div>Web2py Web Framework</div></td></tr><tr><td style="font-weight:bold;vertical-align:top">keywords</td><td valign="top">:</td><td><div>web2py, python, framework</div></td></tr></table></div></td></tr><tr><td style="font-weight:bold;vertical-align:top">models_to_run</td><td valign="top">:</td><td><div><table><tr><td><div>^\\w+\\.py$</div></td></tr><tr><td><div>^default/\\w+\\.py$</div></td></tr><tr><td><div>^default/crtask/\\w+\\.py$</div></td></tr></table></div></td></tr><tr><td style="font-weight:bold;vertical-align:top">postprocessing</td><td valign="top">:</td><td><div><table></table></div></td></tr><tr><td style="font-weight:bold;vertical-align:top">session_cookie_expires</td><td valign="top">:</td><td><div>None</div></td></tr><tr><td style="font-weight:bold;vertical-align:top">session_data_name</td><td valign="top">:</td><td><div>session_data_notes</div></td></tr><tr><td style="font-weight:bold;vertical-align:top">session_file</td><td valign="top">:</td><td><div>&lt;open file &#x27;/home/samfisher/iiith/Semester 2/web2py/applications/notes/sessions/127.0.0.1-b312cdb7-65df-47e9-8ef5-cf1c04c3455e&#x27;, mode &#x27;rb+&#x27; at 0xac7304f0&gt;</div></td></tr><tr><td style="font-weight:bold;vertical-align:top">session_filename</td><td valign="top">:</td><td><div>/home/samfisher/iiith/Semester 2/web2py/applications/notes/sessions/127.0.0.1-b312cdb7-65df-47e9-8ef5-cf1c04c3455e</div></td></tr><tr><td style="font-weight:bold;vertical-align:top">session_id</td><td valign="top">:</td><td><div>127.0.0.1-b312cdb7-65df-47e9-8ef5-cf1c04c3455e</div></td></tr><tr><td style="font-weight:bold;vertical-align:top">session_id_name</td><td valign="top">:</td><td><div>session_id_notes</div></td></tr><tr><td style="font-weight:bold;vertical-align:top">session_locked</td><td valign="top">:</td><td><div>True</div></td></tr><tr><td style="font-weight:bold;vertical-align:top">session_new</td><td valign="top">:</td><td><div>False</div></td></tr><tr><td style="font-weight:bold;vertical-align:top">session_storage_type</td><td valign="top">:</td><td><div>file</div></td></tr><tr><td style="font-weight:bold;vertical-align:top">status</td><td valign="top">:</td><td><div>200</div></td></tr><tr><td style="font-weight:bold;vertical-align:top">view</td><td valign="top">:</td><td><div>default/crtask.html</div></td></tr></table></div>'
tRp241
sS'locals'
p242
(dp243
S'query'
p244
S'"INSERT INTO task(title,done,authoris,pending,des...ES (\'1\',\'F\',\'a@b.com\',\'2013-04-24 00:00:00\',\'1\');"'
p245
sS'self'
p246
S'<gluon.dal.SQLiteAdapter object>'
p247
sS'e'
S"IntegrityError('column title is not unique',)"
p248
sS'fields'
p249
S"[(<gluon.dal.Field object>, '1'), (<gluon.dal.Field object>, False), (<gluon.dal.Field object>, 'a@b.com'), (<gluon.dal.Field object>, datetime.date(2013, 4, 24)), (<gluon.dal.Field object>, '1')]"
p250
sS'table'
p251
S'<Table task (id,title,description,pending,done,authoris)>'
p252
sssS'traceback'
p253
S'Traceback (most recent call last):\n  File "/home/samfisher/iiith/Semester 2/web2py/gluon/restricted.py", line 212, in restricted\n    exec ccode in environment\n  File "/home/samfisher/iiith/Semester 2/web2py/applications/notes/controllers/default.py", line 440, in <module>\n  File "/home/samfisher/iiith/Semester 2/web2py/gluon/globals.py", line 193, in <lambda>\n    self._caller = lambda f: f()\n  File "/home/samfisher/iiith/Semester 2/web2py/gluon/tools.py", line 2942, in f\n    return action(*a, **b)\n  File "/home/samfisher/iiith/Semester 2/web2py/applications/notes/controllers/default.py", line 302, in crtask\n    db.task.insert(title=form.vars.title,description=form.vars.des,pending=form.vars.pen,done=False,authoris=auth.user.email)\n  File "/home/samfisher/iiith/Semester 2/web2py/gluon/dal.py", line 8442, in insert\n    ret =  self._db._adapter.insert(self, self._listify(fields))\n  File "/home/samfisher/iiith/Semester 2/web2py/gluon/dal.py", line 1206, in insert\n    raise e\nIntegrityError: column title is not unique\n'
p254
s.