(dp1
S'output'
p2
S"<class 'sqlite3.OperationalError'> database is locked"
p3
sS'layer'
p4
S'/home/samfisher/iiith/Semester 2/web2py/applications/notes/models/tasks.py'
p5
sS'code'
p6
S"def ma():\n\timport datetime\n#a=db(db.tasks.id>0).select()\n#\tdb\n\tmail.send('aniruddhkanojia94@gmail.com',subject='Hi',message='Hello')\n#for i in range(len(a)):\n#\t\tif a[i]['pending']==datetime.date.today():\n#\t\t\tmail.send(a[i]['authoris'],subject='Pending Task',message='You have a task pending '+a[i]['title'])\n\treturn\nfrom gluon.scheduler import Scheduler\nscheduler=Scheduler(db,dict(f=ma))\n\nscheduler.queue_task('f',repeats=0,period=100)\n"
p7
sS'snapshot'
p8
(dp9
S'exception'
p10
(dp11
S'__module__'
p12
S"'sqlite3'"
p13
sS'__getslice__'
p14
S"<method-wrapper '__getslice__' of OperationalError object>"
p15
sS'__str__'
p16
S"<method-wrapper '__str__' of OperationalError object>"
p17
sS'__reduce__'
p18
S'<built-in method __reduce__ of OperationalError object>'
p19
sS'__dict__'
p20
S'{}'
p21
sS'__sizeof__'
p22
S'<built-in method __sizeof__ of OperationalError object>'
p23
sS'__weakref__'
p24
S'None'
p25
sS'__init__'
p26
S"<method-wrapper '__init__' of OperationalError object>"
p27
sS'__setattr__'
p28
S"<method-wrapper '__setattr__' of OperationalError object>"
p29
sS'__reduce_ex__'
p30
S'<built-in method __reduce_ex__ of OperationalError object>'
p31
sS'__new__'
p32
S'<built-in method __new__ of type object>'
p33
sS'__format__'
p34
S'<built-in method __format__ of OperationalError object>'
p35
sS'__class__'
p36
S"<class 'sqlite3.OperationalError'>"
p37
sS'__doc__'
p38
S'None'
p39
sS'__getitem__'
p40
S"<method-wrapper '__getitem__' of OperationalError object>"
p41
sS'__setstate__'
p42
S'<built-in method __setstate__ of OperationalError object>'
p43
sS'__getattribute__'
p44
S"<method-wrapper '__getattribute__' of OperationalError object>"
p45
sS'args'
p46
S"('database is locked',)"
p47
sS'__subclasshook__'
p48
S'<built-in method __subclasshook__ of type object>'
p49
sS'__unicode__'
p50
S'<built-in method __unicode__ of OperationalError object>'
p51
sS'__delattr__'
p52
S"<method-wrapper '__delattr__' of OperationalError object>"
p53
sS'__repr__'
p54
S"<method-wrapper '__repr__' of OperationalError object>"
p55
sS'__hash__'
p56
S"<method-wrapper '__hash__' of OperationalError object>"
p57
ssS'evalue'
p58
S'database is locked'
p59
sS'request'
p60
cgluon.html
XML_unpickle
p61
(S's\x0b\\\x00\x00<div><table><tr><td style="font-weight:bold;vertical-align:top">ajax</td><td valign="top">:</td><td><div>False</div></td></tr><tr><td style="font-weight:bold;vertical-align:top">application</td><td valign="top">:</td><td><div>notes</div></td></tr><tr><td style="font-weight:bold;vertical-align:top">args</td><td valign="top">:</td><td><div><table><tr><td><div>db</div></td></tr></table></div></td></tr><tr><td style="font-weight:bold;vertical-align:top">body</td><td valign="top">:</td><td><div>&lt;cStringIO.StringO object at 0x8fbdfa0&gt;</div></td></tr><tr><td style="font-weight:bold;vertical-align:top">cid</td><td valign="top">:</td><td><div>None</div></td></tr><tr><td style="font-weight:bold;vertical-align:top">client</td><td valign="top">:</td><td><div>127.0.0.1</div></td></tr><tr><td style="font-weight:bold;vertical-align:top">controller</td><td valign="top">:</td><td><div>appadmin</div></td></tr><tr><td style="font-weight:bold;vertical-align:top">cookies</td><td valign="top">:</td><td><div><table><tr><td style="font-weight:bold;vertical-align:top">session_id_201202029_201202037_online_notes</td><td valign="top">:</td><td><div>127.0.0.1-7b6d6a44-fa2a-44b8-b49d-b31c696f8e19<table><tr><td style="font-weight:bold;vertical-align:top">comment</td><td valign="top">:</td><td><div></div></td></tr><tr><td style="font-weight:bold;vertical-align:top">domain</td><td valign="top">:</td><td><div></div></td></tr><tr><td style="font-weight:bold;vertical-align:top">expires</td><td valign="top">:</td><td><div></div></td></tr><tr><td style="font-weight:bold;vertical-align:top">httponly</td><td valign="top">:</td><td><div></div></td></tr><tr><td style="font-weight:bold;vertical-align:top">max-age</td><td valign="top">:</td><td><div></div></td></tr><tr><td style="font-weight:bold;vertical-align:top">path</td><td valign="top">:</td><td><div></div></td></tr><tr><td style="font-weight:bold;vertical-align:top">secure</td><td valign="top">:</td><td><div></div></td></tr><tr><td style="font-weight:bold;vertical-align:top">version</td><td valign="top">:</td><td><div></div></td></tr></table></div></td></tr><tr><td style="font-weight:bold;vertical-align:top">session_id_admin</td><td valign="top">:</td><td><div>127.0.0.1-80660ba5-5fce-408b-b40e-67765b282988<table><tr><td style="font-weight:bold;vertical-align:top">comment</td><td valign="top">:</td><td><div></div></td></tr><tr><td style="font-weight:bold;vertical-align:top">domain</td><td valign="top">:</td><td><div></div></td></tr><tr><td style="font-weight:bold;vertical-align:top">expires</td><td valign="top">:</td><td><div></div></td></tr><tr><td style="font-weight:bold;vertical-align:top">httponly</td><td valign="top">:</td><td><div></div></td></tr><tr><td style="font-weight:bold;vertical-align:top">max-age</td><td valign="top">:</td><td><div></div></td></tr><tr><td style="font-weight:bold;vertical-align:top">path</td><td valign="top">:</td><td><div></div></td></tr><tr><td style="font-weight:bold;vertical-align:top">secure</td><td valign="top">:</td><td><div></div></td></tr><tr><td style="font-weight:bold;vertical-align:top">version</td><td valign="top">:</td><td><div></div></td></tr></table></div></td></tr><tr><td style="font-weight:bold;vertical-align:top">session_id_notes</td><td valign="top">:</td><td><div>127.0.0.1-46859d7e-ec2c-4814-9d9e-0bb2391c1494<table><tr><td style="font-weight:bold;vertical-align:top">comment</td><td valign="top">:</td><td><div></div></td></tr><tr><td style="font-weight:bold;vertical-align:top">domain</td><td valign="top">:</td><td><div></div></td></tr><tr><td style="font-weight:bold;vertical-align:top">expires</td><td valign="top">:</td><td><div></div></td></tr><tr><td style="font-weight:bold;vertical-align:top">httponly</td><td valign="top">:</td><td><div></div></td></tr><tr><td style="font-weight:bold;vertical-align:top">max-age</td><td valign="top">:</td><td><div></div></td></tr><tr><td style="font-weight:bold;vertical-align:top">path</td><td valign="top">:</td><td><div></div></td></tr><tr><td style="font-weight:bold;vertical-align:top">secure</td><td valign="top">:</td><td><div></div></td></tr><tr><td style="font-weight:bold;vertical-align:top">version</td><td valign="top">:</td><td><div></div></td></tr></table></div></td></tr><tr><td style="font-weight:bold;vertical-align:top">session_id_welcome</td><td valign="top">:</td><td><div>127.0.0.1-34004d24-0e4f-4940-8dd7-ad0dd62ab95e<table><tr><td style="font-weight:bold;vertical-align:top">comment</td><td valign="top">:</td><td><div></div></td></tr><tr><td style="font-weight:bold;vertical-align:top">domain</td><td valign="top">:</td><td><div></div></td></tr><tr><td style="font-weight:bold;vertical-align:top">expires</td><td valign="top">:</td><td><div></div></td></tr><tr><td style="font-weight:bold;vertical-align:top">httponly</td><td valign="top">:</td><td><div></div></td></tr><tr><td style="font-weight:bold;vertical-align:top">max-age</td><td valign="top">:</td><td><div></div></td></tr><tr><td style="font-weight:bold;vertical-align:top">path</td><td valign="top">:</td><td><div></div></td></tr><tr><td style="font-weight:bold;vertical-align:top">secure</td><td valign="top">:</td><td><div></div></td></tr><tr><td style="font-weight:bold;vertical-align:top">version</td><td valign="top">:</td><td><div></div></td></tr></table></div></td></tr></table></div></td></tr><tr><td style="font-weight:bold;vertical-align:top">env</td><td valign="top">:</td><td><div><table><tr><td style="font-weight:bold;vertical-align:top">app_folders</td><td valign="top">:</td><td><div>set([&#x27;/home/samfisher/iiith/Semester 2/web2py/applications/notes/&#x27;, &#x27;/home/samfisher/iiith/Semester 2/web2py/applications/admin/&#x27;, &#x27;/home/samfisher/iiith/Semester 2/web2py/applications/welcome/&#x27;])</div></td></tr><tr><td style="font-weight:bold;vertical-align:top">applications_parent</td><td valign="top">:</td><td><div>/home/samfisher/iiith/Semester 2/web2py</div></td></tr><tr><td style="font-weight:bold;vertical-align:top">cmd_args</td><td valign="top">:</td><td><div><table></table></div></td></tr><tr><td style="font-weight:bold;vertical-align:top">cmd_options</td><td valign="top">:</td><td><div>&lt;Values at 0x8ad5bcc: {&#x27;verbose&#x27;: False, &#x27;ip&#x27;: &#x27;127.0.0.1&#x27;, &#x27;with_scheduler&#x27;: False, &#x27;ips&#x27;: [], &#x27;shutdown_timeout&#x27;: 5, &#x27;taskbar&#x27;: False, &#x27;port&#x27;: 8000, &#x27;maxthreads&#x27;: None, &#x27;softcron&#x27;: False, &#x27;server_name&#x27;: &#x27;samfisher-Inspiron-7520&#x27;, &#x27;bpython&#x27;: False, &#x27;nogui&#x27;: False, &#x27;pid_filename&#x27;: &#x27;httpserver.pid&#x27;, &#x27;extcron&#x27;: False, &#x27;runcron&#x27;: False, &#x27;run_system_tests&#x27;: False, &#x27;test&#x27;: None, &#x27;folder&#x27;: &#x27;/home/samfisher/iiith/Semester 2/web2py&#x27;, &#x27;config&#x27;: &#x27;&#x27;, &#x27;import_models&#x27;: False, &#x27;winservice&#x27;: &#x27;&#x27;, &#x27;shell&#x27;: None, &#x27;run&#x27;: &#x27;&#x27;, &#x27;log_filename&#x27;: &#x27;httpserver.log&#x27;, &#x27;debuglevel&#x27;: 30, &#x27;args&#x27;: [&#x27;&#x27;], &#x27;socket_timeout&#x27;: 5, &#x27;ssl_ca_certificate&#x27;: None, &#x27;scheduler&#x27;: None, &#x27;profiler_filename&#x27;: None, &#x27;ssl_private_key&#x27;: &#x27;&#x27;, &#x27;scheduler_groups&#x27;: None, &#x27;password&#x27;: &#x27;&lt;ask&gt;&#x27;, &#x27;request_queue_size&#x27;: 5, &#x27;ssl_certificate&#x27;: &#x27;&#x27;, &#x27;cronjob&#x27;: False, &#x27;numthreads&#x27;: None, &#x27;quiet&#x27;: False, &#x27;interfaces&#x27;: None, &#x27;minthreads&#x27;: None, &#x27;timeout&#x27;: 10, &#x27;plain&#x27;: False, &#x27;nobanner&#x27;: False}&gt;</div></td></tr><tr><td style="font-weight:bold;vertical-align:top">db_sessions</td><td valign="top">:</td><td><div>set([])</div></td></tr><tr><td style="font-weight:bold;vertical-align:top">debugging</td><td valign="top">:</td><td><div>False</div></td></tr><tr><td style="font-weight:bold;vertical-align:top">gluon_parent</td><td valign="top">:</td><td><div>/home/samfisher/iiith/Semester 2/web2py</div></td></tr><tr><td style="font-weight:bold;vertical-align:top">http_accept</td><td valign="top">:</td><td><div>text/html,application/xhtml+xml,application/xml;q=0.9,*/*;q=0.8</div></td></tr><tr><td style="font-weight:bold;vertical-align:top">http_accept_charset</td><td valign="top">:</td><td><div>ISO-8859-1,utf-8;q=0.7,*;q=0.3</div></td></tr><tr><td style="font-weight:bold;vertical-align:top">http_accept_encoding</td><td valign="top">:</td><td><div>gzip,deflate,sdch</div></td></tr><tr><td style="font-weight:bold;vertical-align:top">http_accept_language</td><td valign="top">:</td><td><div>en-US,en;q=0.8</div></td></tr><tr><td style="font-weight:bold;vertical-align:top">http_cache_control</td><td valign="top">:</td><td><div>max-age=0</div></td></tr><tr><td style="font-weight:bold;vertical-align:top">http_connection</td><td valign="top">:</td><td><div>keep-alive</div></td></tr><tr><td style="font-weight:bold;vertical-align:top">http_cookie</td><td valign="top">:</td><td><div>session_id_201202029_201202037_online_notes=127.0.0.1-7b6d6a44-fa2a-44b8-b49d-b31c696f8e19; session_id_welcome=127.0.0.1-34004d24-0e4f-4940-8dd7-ad0dd62ab95e; session_id_admin=127.0.0.1-80660ba5-5fce-408b-b40e-67765b282988; session_id_notes=127.0.0.1-46859d7e-ec2c-4814-9d9e-0bb2391c1494</div></td></tr><tr><td style="font-weight:bold;vertical-align:top">http_host</td><td valign="top">:</td><td><div>127.0.0.1:8000</div></td></tr><tr><td style="font-weight:bold;vertical-align:top">http_user_agent</td><td valign="top">:</td><td><div>Mozilla/5.0 (X11; Linux i686) AppleWebKit/537.31 (KHTML, like Gecko) Chrome/26.0.1410.43 Safari/537.31</div></td></tr><tr><td style="font-weight:bold;vertical-align:top">is_jython</td><td valign="top">:</td><td><div>False</div></td></tr><tr><td style="font-weight:bold;vertical-align:top">is_pypy</td><td valign="top">:</td><td><div>False</div></td></tr><tr><td style="font-weight:bold;vertical-align:top">local_hosts</td><td valign="top">:</td><td><div><table><tr><td><div>::1</div></td></tr><tr><td><div>127.0.1.1</div></td></tr><tr><td><div>::ffff:127.0.0.1</div></td></tr><tr><td><div>127.0.0.1</div></td></tr><tr><td><div>samfisher-Inspiron-7520</div></td></tr></table></div></td></tr><tr><td style="font-weight:bold;vertical-align:top">path_info</td><td valign="top">:</td><td><div>/notes/appadmin/select/db</div></td></tr><tr><td style="font-weight:bold;vertical-align:top">query_string</td><td valign="top">:</td><td><div></div></td></tr><tr><td style="font-weight:bold;vertical-align:top">remote_addr</td><td valign="top">:</td><td><div>127.0.0.1</div></td></tr><tr><td style="font-weight:bold;vertical-align:top">remote_port</td><td valign="top">:</td><td><div>56604</div></td></tr><tr><td style="font-weight:bold;vertical-align:top">request_method</td><td valign="top">:</td><td><div>GET</div></td></tr><tr><td style="font-weight:bold;vertical-align:top">request_uri</td><td valign="top">:</td><td><div>/notes/appadmin/select/db</div></td></tr><tr><td style="font-weight:bold;vertical-align:top">script_name</td><td valign="top">:</td><td><div></div></td></tr><tr><td style="font-weight:bold;vertical-align:top">server_name</td><td valign="top">:</td><td><div>samfisher-Inspiron-7520</div></td></tr><tr><td style="font-weight:bold;vertical-align:top">server_port</td><td valign="top">:</td><td><div>8000</div></td></tr><tr><td style="font-weight:bold;vertical-align:top">server_protocol</td><td valign="top">:</td><td><div>HTTP/1.1</div></td></tr><tr><td style="font-weight:bold;vertical-align:top">server_software</td><td valign="top">:</td><td><div>Rocket 1.2.6</div></td></tr><tr><td style="font-weight:bold;vertical-align:top">web2py_path</td><td valign="top">:</td><td><div>/home/samfisher/iiith/Semester 2/web2py</div></td></tr><tr><td style="font-weight:bold;vertical-align:top">web2py_version</td><td valign="top">:</td><td><div><table><tr><td><div>2</div></td></tr><tr><td><div>4</div></td></tr><tr><td><div>2</div></td></tr><tr><td><div>stable</div></td></tr><tr><td><div>datetime.datetime(2013, 3, 4, 3, 26, 21)</div></td></tr></table></div></td></tr><tr><td style="font-weight:bold;vertical-align:top">wsgi_errors</td><td valign="top">:</td><td><div>&lt;open file &#x27;&lt;stderr&gt;&#x27;, mode &#x27;w&#x27; at 0xb72e90d0&gt;</div></td></tr><tr><td style="font-weight:bold;vertical-align:top">wsgi_file_wrapper</td><td valign="top">:</td><td><div>&lt;class wsgiref.util.FileWrapper at 0x8a7be6c&gt;</div></td></tr><tr><td style="font-weight:bold;vertical-align:top">wsgi_input</td><td valign="top">:</td><td><div>&lt;socket._fileobject object at 0xaca37d6c&gt;</div></td></tr><tr><td style="font-weight:bold;vertical-align:top">wsgi_multiprocess</td><td valign="top">:</td><td><div>False</div></td></tr><tr><td style="font-weight:bold;vertical-align:top">wsgi_multithread</td><td valign="top">:</td><td><div>True</div></td></tr><tr><td style="font-weight:bold;vertical-align:top">wsgi_run_once</td><td valign="top">:</td><td><div>False</div></td></tr><tr><td style="font-weight:bold;vertical-align:top">wsgi_url_scheme</td><td valign="top">:</td><td><div>http</div></td></tr><tr><td style="font-weight:bold;vertical-align:top">wsgi_version</td><td valign="top">:</td><td><div><table><tr><td><div>1</div></td></tr><tr><td><div>0</div></td></tr></table></div></td></tr></table></div></td></tr><tr><td style="font-weight:bold;vertical-align:top">extension</td><td valign="top">:</td><td><div>html</div></td></tr><tr><td style="font-weight:bold;vertical-align:top">folder</td><td valign="top">:</td><td><div>/home/samfisher/iiith/Semester 2/web2py/applications/notes/</div></td></tr><tr><td style="font-weight:bold;vertical-align:top">function</td><td valign="top">:</td><td><div>select</div></td></tr><tr><td style="font-weight:bold;vertical-align:top">get_vars</td><td valign="top">:</td><td><div><table></table></div></td></tr><tr><td style="font-weight:bold;vertical-align:top">global_settings</td><td valign="top">:</td><td><div><table><tr><td style="font-weight:bold;vertical-align:top">app_folders</td><td valign="top">:</td><td><div>set([&#x27;/home/samfisher/iiith/Semester 2/web2py/applications/notes/&#x27;, &#x27;/home/samfisher/iiith/Semester 2/web2py/applications/admin/&#x27;, &#x27;/home/samfisher/iiith/Semester 2/web2py/applications/welcome/&#x27;])</div></td></tr><tr><td style="font-weight:bold;vertical-align:top">applications_parent</td><td valign="top">:</td><td><div>/home/samfisher/iiith/Semester 2/web2py</div></td></tr><tr><td style="font-weight:bold;vertical-align:top">cmd_args</td><td valign="top">:</td><td><div><table></table></div></td></tr><tr><td style="font-weight:bold;vertical-align:top">cmd_options</td><td valign="top">:</td><td><div>&lt;Values at 0x8ad5bcc: {&#x27;verbose&#x27;: False, &#x27;ip&#x27;: &#x27;127.0.0.1&#x27;, &#x27;with_scheduler&#x27;: False, &#x27;ips&#x27;: [], &#x27;shutdown_timeout&#x27;: 5, &#x27;taskbar&#x27;: False, &#x27;port&#x27;: 8000, &#x27;maxthreads&#x27;: None, &#x27;softcron&#x27;: False, &#x27;server_name&#x27;: &#x27;samfisher-Inspiron-7520&#x27;, &#x27;bpython&#x27;: False, &#x27;nogui&#x27;: False, &#x27;pid_filename&#x27;: &#x27;httpserver.pid&#x27;, &#x27;extcron&#x27;: False, &#x27;runcron&#x27;: False, &#x27;run_system_tests&#x27;: False, &#x27;test&#x27;: None, &#x27;folder&#x27;: &#x27;/home/samfisher/iiith/Semester 2/web2py&#x27;, &#x27;config&#x27;: &#x27;&#x27;, &#x27;import_models&#x27;: False, &#x27;winservice&#x27;: &#x27;&#x27;, &#x27;shell&#x27;: None, &#x27;run&#x27;: &#x27;&#x27;, &#x27;log_filename&#x27;: &#x27;httpserver.log&#x27;, &#x27;debuglevel&#x27;: 30, &#x27;args&#x27;: [&#x27;&#x27;], &#x27;socket_timeout&#x27;: 5, &#x27;ssl_ca_certificate&#x27;: None, &#x27;scheduler&#x27;: None, &#x27;profiler_filename&#x27;: None, &#x27;ssl_private_key&#x27;: &#x27;&#x27;, &#x27;scheduler_groups&#x27;: None, &#x27;password&#x27;: &#x27;&lt;ask&gt;&#x27;, &#x27;request_queue_size&#x27;: 5, &#x27;ssl_certificate&#x27;: &#x27;&#x27;, &#x27;cronjob&#x27;: False, &#x27;numthreads&#x27;: None, &#x27;quiet&#x27;: False, &#x27;interfaces&#x27;: None, &#x27;minthreads&#x27;: None, &#x27;timeout&#x27;: 10, &#x27;plain&#x27;: False, &#x27;nobanner&#x27;: False}&gt;</div></td></tr><tr><td style="font-weight:bold;vertical-align:top">db_sessions</td><td valign="top">:</td><td><div>set([])</div></td></tr><tr><td style="font-weight:bold;vertical-align:top">debugging</td><td valign="top">:</td><td><div>False</div></td></tr><tr><td style="font-weight:bold;vertical-align:top">gluon_parent</td><td valign="top">:</td><td><div>/home/samfisher/iiith/Semester 2/web2py</div></td></tr><tr><td style="font-weight:bold;vertical-align:top">is_jython</td><td valign="top">:</td><td><div>False</div></td></tr><tr><td style="font-weight:bold;vertical-align:top">is_pypy</td><td valign="top">:</td><td><div>False</div></td></tr><tr><td style="font-weight:bold;vertical-align:top">local_hosts</td><td valign="top">:</td><td><div><table><tr><td><div>::1</div></td></tr><tr><td><div>127.0.1.1</div></td></tr><tr><td><div>::ffff:127.0.0.1</div></td></tr><tr><td><div>127.0.0.1</div></td></tr><tr><td><div>samfisher-Inspiron-7520</div></td></tr></table></div></td></tr><tr><td style="font-weight:bold;vertical-align:top">web2py_version</td><td valign="top">:</td><td><div><table><tr><td><div>2</div></td></tr><tr><td><div>4</div></td></tr><tr><td><div>2</div></td></tr><tr><td><div>stable</div></td></tr><tr><td><div>datetime.datetime(2013, 3, 4, 3, 26, 21)</div></td></tr></table></div></td></tr></table></div></td></tr><tr><td style="font-weight:bold;vertical-align:top">is_https</td><td valign="top">:</td><td><div>False</div></td></tr><tr><td style="font-weight:bold;vertical-align:top">is_local</td><td valign="top">:</td><td><div>True</div></td></tr><tr><td style="font-weight:bold;vertical-align:top">is_restful</td><td valign="top">:</td><td><div>False</div></td></tr><tr><td style="font-weight:bold;vertical-align:top">now</td><td valign="top">:</td><td><div>datetime.datetime(2013, 4, 15, 0, 47, 50, 853670)</div></td></tr><tr><td style="font-weight:bold;vertical-align:top">post_vars</td><td valign="top">:</td><td><div><table></table></div></td></tr><tr><td style="font-weight:bold;vertical-align:top">raw_args</td><td valign="top">:</td><td><div>db</div></td></tr><tr><td style="font-weight:bold;vertical-align:top">raw_extension</td><td valign="top">:</td><td><div>None</div></td></tr><tr><td style="font-weight:bold;vertical-align:top">url</td><td valign="top">:</td><td><div>/notes/appadmin/select/db</div></td></tr><tr><td style="font-weight:bold;vertical-align:top">utcnow</td><td valign="top">:</td><td><div>datetime.datetime(2013, 4, 14, 19, 17, 50, 853710)</div></td></tr><tr><td style="font-weight:bold;vertical-align:top">uuid</td><td valign="top">:</td><td><div>notes/127.0.0.1.2013-04-15.00-47-50.3d93ae7b-2d1c-4b51-bd55-9e123ff4dd0f</div></td></tr><tr><td style="font-weight:bold;vertical-align:top">vars</td><td valign="top">:</td><td><div><table></table></div></td></tr><tr><td style="font-weight:bold;vertical-align:top">wsgi</td><td valign="top">:</td><td><div><table><tr><td style="font-weight:bold;vertical-align:top">environ</td><td valign="top">:</td><td><div><table><tr><td style="font-weight:bold;vertical-align:top">HTTP_ACCEPT</td><td valign="top">:</td><td><div>text/html,application/xhtml+xml,application/xml;q=0.9,*/*;q=0.8</div></td></tr><tr><td style="font-weight:bold;vertical-align:top">HTTP_ACCEPT_CHARSET</td><td valign="top">:</td><td><div>ISO-8859-1,utf-8;q=0.7,*;q=0.3</div></td></tr><tr><td style="font-weight:bold;vertical-align:top">HTTP_ACCEPT_ENCODING</td><td valign="top">:</td><td><div>gzip,deflate,sdch</div></td></tr><tr><td style="font-weight:bold;vertical-align:top">HTTP_ACCEPT_LANGUAGE</td><td valign="top">:</td><td><div>en-US,en;q=0.8</div></td></tr><tr><td style="font-weight:bold;vertical-align:top">HTTP_CACHE_CONTROL</td><td valign="top">:</td><td><div>max-age=0</div></td></tr><tr><td style="font-weight:bold;vertical-align:top">HTTP_CONNECTION</td><td valign="top">:</td><td><div>keep-alive</div></td></tr><tr><td style="font-weight:bold;vertical-align:top">HTTP_COOKIE</td><td valign="top">:</td><td><div>session_id_201202029_201202037_online_notes=127.0.0.1-7b6d6a44-fa2a-44b8-b49d-b31c696f8e19; session_id_welcome=127.0.0.1-34004d24-0e4f-4940-8dd7-ad0dd62ab95e; session_id_admin=127.0.0.1-80660ba5-5fce-408b-b40e-67765b282988; session_id_notes=127.0.0.1-46859d7e-ec2c-4814-9d9e-0bb2391c1494</div></td></tr><tr><td style="font-weight:bold;vertical-align:top">HTTP_HOST</td><td valign="top">:</td><td><div>127.0.0.1:8000</div></td></tr><tr><td style="font-weight:bold;vertical-align:top">HTTP_USER_AGENT</td><td valign="top">:</td><td><div>Mozilla/5.0 (X11; Linux i686) AppleWebKit/537.31 (KHTML, like Gecko) Chrome/26.0.1410.43 Safari/537.31</div></td></tr><tr><td style="font-weight:bold;vertical-align:top">PATH_INFO</td><td valign="top">:</td><td><div>/notes/appadmin/select/db</div></td></tr><tr><td style="font-weight:bold;vertical-align:top">QUERY_STRING</td><td valign="top">:</td><td><div></div></td></tr><tr><td style="font-weight:bold;vertical-align:top">REMOTE_ADDR</td><td valign="top">:</td><td><div>127.0.0.1</div></td></tr><tr><td style="font-weight:bold;vertical-align:top">REMOTE_PORT</td><td valign="top">:</td><td><div>56604</div></td></tr><tr><td style="font-weight:bold;vertical-align:top">REQUEST_METHOD</td><td valign="top">:</td><td><div>GET</div></td></tr><tr><td style="font-weight:bold;vertical-align:top">REQUEST_URI</td><td valign="top">:</td><td><div>/notes/appadmin/select/db</div></td></tr><tr><td style="font-weight:bold;vertical-align:top">SCRIPT_NAME</td><td valign="top">:</td><td><div></div></td></tr><tr><td style="font-weight:bold;vertical-align:top">SERVER_NAME</td><td valign="top">:</td><td><div>samfisher-Inspiron-7520</div></td></tr><tr><td style="font-weight:bold;vertical-align:top">SERVER_PORT</td><td valign="top">:</td><td><div>8000</div></td></tr><tr><td style="font-weight:bold;vertical-align:top">SERVER_PROTOCOL</td><td valign="top">:</td><td><div>HTTP/1.1</div></td></tr><tr><td style="font-weight:bold;vertical-align:top">SERVER_SOFTWARE</td><td valign="top">:</td><td><div>Rocket 1.2.6</div></td></tr><tr><td style="font-weight:bold;vertical-align:top">wsgi.errors</td><td valign="top">:</td><td><div>&lt;open file &#x27;&lt;stderr&gt;&#x27;, mode &#x27;w&#x27; at 0xb72e90d0&gt;</div></td></tr><tr><td style="font-weight:bold;vertical-align:top">wsgi.file_wrapper</td><td valign="top">:</td><td><div>&lt;class wsgiref.util.FileWrapper at 0x8a7be6c&gt;</div></td></tr><tr><td style="font-weight:bold;vertical-align:top">wsgi.input</td><td valign="top">:</td><td><div>&lt;cStringIO.StringO object at 0x8fbdfa0&gt;</div></td></tr><tr><td style="font-weight:bold;vertical-align:top">wsgi.multiprocess</td><td valign="top">:</td><td><div>False</div></td></tr><tr><td style="font-weight:bold;vertical-align:top">wsgi.multithread</td><td valign="top">:</td><td><div>True</div></td></tr><tr><td style="font-weight:bold;vertical-align:top">wsgi.run_once</td><td valign="top">:</td><td><div>False</div></td></tr><tr><td style="font-weight:bold;vertical-align:top">wsgi.url_scheme</td><td valign="top">:</td><td><div>http</div></td></tr><tr><td style="font-weight:bold;vertical-align:top">wsgi.version</td><td valign="top">:</td><td><div>1</div></td></tr></table></div></td></tr></table></div></td></tr></table></div>'
tRp62
sS'frames'
p63
(lp64
(dp65
S'file'
p66
S'/home/samfisher/iiith/Semester 2/web2py/gluon/restricted.py'
p67
sS'dump'
p68
(dp69
S'environment'
p70
S"{'A': <class 'gluon.html.A'>, 'Auth': <class 'gluon.tools.Auth'>, 'B': <class 'gluon.html.B'>, 'BEAUTIFY': <class 'gluon.html.BEAUTIFY'>, 'BODY': <class 'gluon.html.BODY'>, 'BR': <class 'gluon.html.BR'>, 'BUTTON': <class 'gluon.html.BUTTON'>, 'CAT': <class 'gluon.html.CAT'>, 'CENTER': <class 'gluon.html.CENTER'>, 'CLEANUP': <class 'gluon.validators.CLEANUP'>, ...}"
p71
sS'ccode'
p72
S'<code object <module> at 0xacc24848, file "/home...b2py/applications/notes/models/tasks.py", line 1>'
p73
ssS'lnum'
p74
I212
sS'lines'
p75
(dp76
I207
S'    try:'
p77
sI208
S'        if isinstance(code, types.CodeType):'
p78
sI209
S'            ccode = code'
p79
sI210
S'        else:'
p80
sI211
S'            ccode = compile2(code, layer)'
p81
sI212
S'        exec ccode in environment'
p82
sI213
S'    except HTTP:'
p83
sI214
S'        raise'
p84
sI215
S'    except RestrictedError:'
p85
sI216
S'        # do not encapsulate (obfuscate) the original RestrictedError'
p86
ssS'call'
p87
S'(code="def ma():\\n\\timport datetime\\n#a=db(db.tasks.id>0)....\\n\\nscheduler.queue_task(\'f\',repeats=0,period=100)\\n", environment={\'A\': <class \'gluon.html.A\'>, \'Auth\': <class \'gluon.tools.Auth\'>, \'B\': <class \'gluon.html.B\'>, \'BEAUTIFY\': <class \'gluon.html.BEAUTIFY\'>, \'BODY\': <class \'gluon.html.BODY\'>, \'BR\': <class \'gluon.html.BR\'>, \'BUTTON\': <class \'gluon.html.BUTTON\'>, \'CAT\': <class \'gluon.html.CAT\'>, \'CENTER\': <class \'gluon.html.CENTER\'>, \'CLEANUP\': <class \'gluon.validators.CLEANUP\'>, ...}, layer=\'/home/samfisher/iiith/Semester 2/web2py/applications/notes/models/tasks.py\')'
p88
sS'func'
p89
S'restricted'
p90
sa(dp91
g66
S'/home/samfisher/iiith/Semester 2/web2py/applications/notes/models/tasks.py'
p92
sg68
(dp93
S'repeats'
p94
S'undefined'
p95
sS'scheduler.queue_task'
p96
S'<bound method Scheduler.queue_task of <Scheduler(Thread-31, initial daemon)>>'
p97
sS'period'
p98
g95
sS'scheduler'
p99
S'<Scheduler(Thread-31, initial daemon)>'
p100
ssg74
I13
sg75
(dp101
I4
S'#\tdb'
p102
sI5
S"\tmail.send('aniruddhkanojia94@gmail.com',subject='Hi',message='Hello')"
p103
sI6
S'#for i in range(len(a)):'
p104
sI7
S"#\t\tif a[i]['pending']==datetime.date.today():"
p105
sI8
S"#\t\t\tmail.send(a[i]['authoris'],subject='Pending Task',message='You have a task pending '+a[i]['title'])"
p106
sI9
S'\treturn'
p107
sI10
S'from gluon.scheduler import Scheduler'
p108
sI11
S'scheduler=Scheduler(db,dict(f=ma))'
p109
sI12
S''
sI13
S"scheduler.queue_task('f',repeats=0,period=100)"
p110
ssg87
S'()'
p111
sg89
S'<module>'
p112
sa(dp113
g66
S'/home/samfisher/iiith/Semester 2/web2py/gluon/scheduler.py'
p114
sg68
(dp115
S'kwargs'
p116
S"{'period': 100, 'repeats': 0}"
p117
ssg74
I955
sg75
(dp118
I950
S'            function_name=function,'
p119
sI951
S'            task_name=tname,'
p120
sI952
S'            args=targs,'
p121
sI953
S'            vars=tvars,'
p122
sI954
S'            uuid=tuuid,'
p123
sI955
S'            **kwargs)'
p124
sI956
S'        if not rtn.errors:'
p125
sI957
S'            rtn.uuid = tuuid'
p126
sI958
S'            if immediate:'
p127
sI959
S'                self.db(self.db.scheduler_worker.is_ticker == True).update(status=PICK)'
p128
ssg87
S"(self=<Scheduler(Thread-31, initial daemon)>, function='f', pargs=[], pvars={}, **kwargs={'period': 100, 'repeats': 0})"
p129
sg89
S'queue_task'
p130
sa(dp131
g66
S'/home/samfisher/iiith/Semester 2/web2py/gluon/dal.py'
p132
sg68
(dp133
S'self.insert'
p134
S'<bound method Table.insert of <Table scheduler_t...imes_failed,last_run_time,assigned_worker_name)>>'
p135
sS'response.id'
p136
g95
sS'self'
p137
S'<Table scheduler_task (id,application_name,task_...times_failed,last_run_time,assigned_worker_name)>'
p138
sS'new_fields'
p139
S"{'args': '[]', 'function_name': 'f', 'period': 100, 'repeats': 0, 'task_name': 'f', 'uuid': 'd466e1ed-4bdd-457e-9127-e7ba03def3d5', 'vars': '{}'}"
p140
sS'response'
p141
S"<Row {'errors': {}}>"
p142
ssg74
I8459
sg75
(dp143
I8454
S'            if error:'
p144
sI8455
S'                response.errors[key] = "%s" % error'
p145
sI8456
S'            else:'
p146
sI8457
S'                new_fields[key] = value'
p147
sI8458
S'        if not response.errors:'
p148
sI8459
S'            response.id = self.insert(**new_fields)'
p149
sI8460
S'        else:'
p150
sI8461
S'            response.id = None'
p151
sI8462
S'        return response'
p152
sI8463
S''
ssg87
S"(self=<Table scheduler_task (id,application_name,task_...times_failed,last_run_time,assigned_worker_name)>, **fields={'args': '[]', 'function_name': 'f', 'period': 100, 'repeats': 0, 'task_name': 'f', 'uuid': 'd466e1ed-4bdd-457e-9127-e7ba03def3d5', 'vars': '{}'})"
p153
sg89
S'validate_and_insert'
p154
sa(dp155
g66
S'/home/samfisher/iiith/Semester 2/web2py/gluon/dal.py'
p156
sg68
(dp157
S'self._listify'
p158
S'<bound method Table._listify of <Table scheduler...imes_failed,last_run_time,assigned_worker_name)>>'
p159
sS'fields'
p160
S"{'application_name': 'notes/appadmin', 'args': '[]', 'assigned_worker_name': '', 'enabled': True, 'function_name': 'f', 'group_name': 'main', 'next_run_time': <bound method Scheduler.now of <Scheduler(Thread-31, initial daemon)>>, 'period': 100, 'repeats': 0, 'retry_failed': 0, ...}"
p161
sS'self'
p162
S'<Table scheduler_task (id,application_name,task_...times_failed,last_run_time,assigned_worker_name)>'
p163
sS'ret'
p164
g95
sS'self._db._adapter'
p165
S'<gluon.dal.SQLiteAdapter object>'
p166
sS'self._db._adapter.insert'
p167
S'<bound method SQLiteAdapter.insert of <gluon.dal.SQLiteAdapter object>>'
p168
sS'self._db'
p169
S'<DAL uri="sqlite://storage.sqlite">'
p170
ssg74
I8442
sg75
(dp171
I8437
S''
sI8438
S'    def insert(self, **fields):'
p172
sI8439
S'        fields = self._defaults(fields)'
p173
sI8440
S'        self._attempt_upload(fields)'
p174
sI8441
S'        if any(f(fields) for f in self._before_insert): return 0'
p175
sI8442
S'        ret =  self._db._adapter.insert(self, self._listify(fields))'
p176
sI8443
S'        if ret and self._after_insert:'
p177
sI8444
S'            fields = Row(fields)'
p178
sI8445
S'            [f(fields,ret) for f in self._after_insert]'
p179
sI8446
S'        return ret'
p180
ssg87
S"(self=<Table scheduler_task (id,application_name,task_...times_failed,last_run_time,assigned_worker_name)>, **fields={'application_name': 'notes/appadmin', 'args': '[]', 'assigned_worker_name': '', 'enabled': True, 'function_name': 'f', 'group_name': 'main', 'next_run_time': <bound method Scheduler.now of <Scheduler(Thread-31, initial daemon)>>, 'period': 100, 'repeats': 0, 'retry_failed': 0, ...})"
p181
sg89
S'insert'
p182
sa(dp183
g66
S'/home/samfisher/iiith/Semester 2/web2py/gluon/dal.py'
p184
sg68
(dp185
S'e'
S"OperationalError('database is locked',)"
p186
ssg74
I1206
sg75
(dp187
I1201
S'            self.execute(query)'
p188
sI1202
S'        except Exception:'
p189
sI1203
S'            e = sys.exc_info()[1]'
p190
sI1204
S'            if isinstance(e,self.integrity_error_class()):'
p191
sI1205
S'                return None'
p192
sI1206
S'            raise e'
p193
sI1207
S"        if hasattr(table,'_primarykey'):"
p194
sI1208
S'            return dict([(k[0].name, k[1]) for k in fields \\'
p195
sI1209
S'                             if k[0].name in table._primarykey])'
p196
sI1210
S'        id = self.lastrowid(table)'
p197
ssg87
S"(self=<gluon.dal.SQLiteAdapter object>, table=<Table scheduler_task (id,application_name,task_...times_failed,last_run_time,assigned_worker_name)>, fields=[(<gluon.dal.Field object>, 'QUEUED'), (<gluon.dal.Field object>, <bound method Scheduler.now of <Scheduler(Thread-31, initial daemon)>>), (<gluon.dal.Field object>, 'd466e1ed-4bdd-457e-9127-e7ba03def3d5'), (<gluon.dal.Field object>, '{}'), (<gluon.dal.Field object>, 0), (<gluon.dal.Field object>, <bound method Scheduler.now of <Scheduler(Thread-31, initial daemon)>>), (<gluon.dal.Field object>, '[]'), (<gluon.dal.Field object>, True), (<gluon.dal.Field object>, 100), (<gluon.dal.Field object>, 'main'), (<gluon.dal.Field object>, 0), (<gluon.dal.Field object>, 60), (<gluon.dal.Field object>, 0), (<gluon.dal.Field object>, 'f'), (<gluon.dal.Field object>, 'notes/appadmin'), (<gluon.dal.Field object>, 0), (<gluon.dal.Field object>, 0), (<gluon.dal.Field object>, ''), (<gluon.dal.Field object>, 'f')])"
p198
sg89
g182
sasS'pyver'
p199
S'Python 2.7.3: /usr/bin/python (prefix: /usr)'
p200
sS'session'
p201
g61
(S's\x1f\x01\x00\x00<div><table><tr><td style="font-weight:bold;vertical-align:top">last_orderby</td><td valign="top">:</td><td><div>None</div></td></tr><tr><td style="font-weight:bold;vertical-align:top">last_query</td><td valign="top">:</td><td><div>db.scheduler_task.id&gt;0</div></td></tr></table></div>'
tRp202
sS'etype'
p203
S"<class 'sqlite3.OperationalError'>"
p204
sS'date'
p205
S'Mon Apr 15 00:47:55 2013'
p206
sS'response'
p207
g61
(S's\x19\x1e\x00\x00<div><table><tr><td style="font-weight:bold;vertical-align:top">body</td><td valign="top">:</td><td><div>&lt;cStringIO.StringO object at 0x8f952c0&gt;</div></td></tr><tr><td style="font-weight:bold;vertical-align:top">cookies</td><td valign="top">:</td><td><div><table><tr><td style="font-weight:bold;vertical-align:top">session_id_notes</td><td valign="top">:</td><td><div>127.0.0.1-46859d7e-ec2c-4814-9d9e-0bb2391c1494<table><tr><td style="font-weight:bold;vertical-align:top">comment</td><td valign="top">:</td><td><div></div></td></tr><tr><td style="font-weight:bold;vertical-align:top">domain</td><td valign="top">:</td><td><div></div></td></tr><tr><td style="font-weight:bold;vertical-align:top">expires</td><td valign="top">:</td><td><div></div></td></tr><tr><td style="font-weight:bold;vertical-align:top">httponly</td><td valign="top">:</td><td><div></div></td></tr><tr><td style="font-weight:bold;vertical-align:top">max-age</td><td valign="top">:</td><td><div></div></td></tr><tr><td style="font-weight:bold;vertical-align:top">path</td><td valign="top">:</td><td><div>/</div></td></tr><tr><td style="font-weight:bold;vertical-align:top">secure</td><td valign="top">:</td><td><div></div></td></tr><tr><td style="font-weight:bold;vertical-align:top">version</td><td valign="top">:</td><td><div></div></td></tr></table></div></td></tr></table></div></td></tr><tr><td style="font-weight:bold;vertical-align:top">delimiters</td><td valign="top">:</td><td><div><table><tr><td><div>{{</div></td></tr><tr><td><div>}}</div></td></tr></table></div></td></tr><tr><td style="font-weight:bold;vertical-align:top">files</td><td valign="top">:</td><td><div><table></table></div></td></tr><tr><td style="font-weight:bold;vertical-align:top">flash</td><td valign="top">:</td><td><div></div></td></tr><tr><td style="font-weight:bold;vertical-align:top">generic_patterns</td><td valign="top">:</td><td><div><table><tr><td><div>*</div></td></tr></table></div></td></tr><tr><td style="font-weight:bold;vertical-align:top">google_analytics_id</td><td valign="top">:</td><td><div>None</div></td></tr><tr><td style="font-weight:bold;vertical-align:top">headers</td><td valign="top">:</td><td><div><table><tr><td style="font-weight:bold;vertical-align:top">X-Powered-By</td><td valign="top">:</td><td><div>web2py</div></td></tr></table></div></td></tr><tr><td style="font-weight:bold;vertical-align:top">logo</td><td valign="top">:</td><td><div><a class="brand" href="/notes/default/index"><b>Home !</b></a></div></td></tr><tr><td style="font-weight:bold;vertical-align:top">menu</td><td valign="top">:</td><td><div><table><tr><td><div><table><tr><td><div>Notes</div></td></tr><tr><td><div>False</div></td></tr><tr><td><div>/notes/default/index</div></td></tr><tr><td><div><table><tr><td><div><table><tr><td><div>Create</div></td></tr><tr><td><div>False</div></td></tr><tr><td><div>/notes/default/create</div></td></tr></table></div></td></tr><tr><td><div><table><tr><td><div>Edit</div></td></tr><tr><td><div>False</div></td></tr><tr><td><div>/notes/default/edshow</div></td></tr></table></div></td></tr><tr><td><div><table><tr><td><div>Delete</div></td></tr><tr><td><div>False</div></td></tr><tr><td><div>/notes/default/eddel</div></td></tr></table></div></td></tr></table></div></td></tr></table></div></td></tr><tr><td><div><table><tr><td><div>Tasks</div></td></tr><tr><td><div>False</div></td></tr><tr><td><div>/notes/default/index</div></td></tr><tr><td><div><table><tr><td><div><table><tr><td><div>Create</div></td></tr><tr><td><div>False</div></td></tr><tr><td><div>/notes/default/crtask</div></td></tr></table></div></td></tr><tr><td><div><table><tr><td><div>Edit</div></td></tr><tr><td><div>False</div></td></tr><tr><td><div>/notes/default/taskedshow</div></td></tr></table></div></td></tr><tr><td><div><table><tr><td><div>Delete</div></td></tr><tr><td><div>False</div></td></tr><tr><td><div>/notes/default/taskshdel</div></td></tr></table></div></td></tr></table></div></td></tr></table></div></td></tr><tr><td><div><table><tr><td><div>Search</div></td></tr><tr><td><div>False</div></td></tr><tr><td><div>/notes/default/searchinp</div></td></tr><tr><td><div><table><tr><td><div><table><tr><td><div>By Title</div></td></tr><tr><td><div>False</div></td></tr><tr><td><div>/notes/default/asearchtit</div></td></tr></table></div></td></tr><tr><td><div><table><tr><td><div>By Tags</div></td></tr><tr><td><div>False</div></td></tr><tr><td><div>/notes/default/asearchtag</div></td></tr></table></div></td></tr></table></div></td></tr></table></div></td></tr><tr><td><div><table><tr><td><div>View by Tags</div></td></tr><tr><td><div>False</div></td></tr><tr><td><div>/notes/default/litetag</div></td></tr></table></div></td></tr><tr><td><div><table><tr><td><div>Help</div></td></tr><tr><td><div>False</div></td></tr><tr><td><div>/notes/default/help</div></td></tr></table></div></td></tr></table></div></td></tr><tr><td style="font-weight:bold;vertical-align:top">meta</td><td valign="top">:</td><td><div><table><tr><td style="font-weight:bold;vertical-align:top">author</td><td valign="top">:</td><td><div>Your Name &lt;you@example.com&gt;</div></td></tr><tr><td style="font-weight:bold;vertical-align:top">description</td><td valign="top">:</td><td><div>a cool new app</div></td></tr><tr><td style="font-weight:bold;vertical-align:top">generator</td><td valign="top">:</td><td><div>Web2py Web Framework</div></td></tr><tr><td style="font-weight:bold;vertical-align:top">keywords</td><td valign="top">:</td><td><div>web2py, python, framework</div></td></tr></table></div></td></tr><tr><td style="font-weight:bold;vertical-align:top">models_to_run</td><td valign="top">:</td><td><div><table><tr><td><div>^\\w+\\.py$</div></td></tr><tr><td><div>^appadmin/\\w+\\.py$</div></td></tr><tr><td><div>^appadmin/select/\\w+\\.py$</div></td></tr></table></div></td></tr><tr><td style="font-weight:bold;vertical-align:top">postprocessing</td><td valign="top">:</td><td><div><table></table></div></td></tr><tr><td style="font-weight:bold;vertical-align:top">session_cookie_expires</td><td valign="top">:</td><td><div>None</div></td></tr><tr><td style="font-weight:bold;vertical-align:top">session_data_name</td><td valign="top">:</td><td><div>session_data_notes</div></td></tr><tr><td style="font-weight:bold;vertical-align:top">session_file</td><td valign="top">:</td><td><div>&lt;open file &#x27;/home/samfisher/iiith/Semester 2/web2py/applications/notes/sessions/127.0.0.1-46859d7e-ec2c-4814-9d9e-0bb2391c1494&#x27;, mode &#x27;rb+&#x27; at 0x8fafb20&gt;</div></td></tr><tr><td style="font-weight:bold;vertical-align:top">session_filename</td><td valign="top">:</td><td><div>/home/samfisher/iiith/Semester 2/web2py/applications/notes/sessions/127.0.0.1-46859d7e-ec2c-4814-9d9e-0bb2391c1494</div></td></tr><tr><td style="font-weight:bold;vertical-align:top">session_id</td><td valign="top">:</td><td><div>127.0.0.1-46859d7e-ec2c-4814-9d9e-0bb2391c1494</div></td></tr><tr><td style="font-weight:bold;vertical-align:top">session_id_name</td><td valign="top">:</td><td><div>session_id_notes</div></td></tr><tr><td style="font-weight:bold;vertical-align:top">session_locked</td><td valign="top">:</td><td><div>True</div></td></tr><tr><td style="font-weight:bold;vertical-align:top">session_new</td><td valign="top">:</td><td><div>False</div></td></tr><tr><td style="font-weight:bold;vertical-align:top">session_storage_type</td><td valign="top">:</td><td><div>file</div></td></tr><tr><td style="font-weight:bold;vertical-align:top">status</td><td valign="top">:</td><td><div>200</div></td></tr><tr><td style="font-weight:bold;vertical-align:top">view</td><td valign="top">:</td><td><div>appadmin/select.html</div></td></tr></table></div>'
tRp208
sS'locals'
p209
(dp210
S'query'
p211
S'"INSERT INTO scheduler_task(status,next_run_time,...0,\'main\',0,60,0,\'f\',\'notes/appadmin\',0,0,\'\',\'f\');"'
p212
sS'self'
p213
S'<gluon.dal.SQLiteAdapter object>'
p214
sS'e'
S"OperationalError('database is locked',)"
p215
sS'fields'
p216
S"[(<gluon.dal.Field object>, 'QUEUED'), (<gluon.dal.Field object>, <bound method Scheduler.now of <Scheduler(Thread-31, initial daemon)>>), (<gluon.dal.Field object>, 'd466e1ed-4bdd-457e-9127-e7ba03def3d5'), (<gluon.dal.Field object>, '{}'), (<gluon.dal.Field object>, 0), (<gluon.dal.Field object>, <bound method Scheduler.now of <Scheduler(Thread-31, initial daemon)>>), (<gluon.dal.Field object>, '[]'), (<gluon.dal.Field object>, True), (<gluon.dal.Field object>, 100), (<gluon.dal.Field object>, 'main'), (<gluon.dal.Field object>, 0), (<gluon.dal.Field object>, 60), (<gluon.dal.Field object>, 0), (<gluon.dal.Field object>, 'f'), (<gluon.dal.Field object>, 'notes/appadmin'), (<gluon.dal.Field object>, 0), (<gluon.dal.Field object>, 0), (<gluon.dal.Field object>, ''), (<gluon.dal.Field object>, 'f')]"
p217
sS'table'
p218
S'<Table scheduler_task (id,application_name,task_...times_failed,last_run_time,assigned_worker_name)>'
p219
sssS'traceback'
p220
S'Traceback (most recent call last):\n  File "/home/samfisher/iiith/Semester 2/web2py/gluon/restricted.py", line 212, in restricted\n    exec ccode in environment\n  File "/home/samfisher/iiith/Semester 2/web2py/applications/notes/models/tasks.py", line 13, in <module>\n    scheduler.queue_task(\'f\',repeats=0,period=100)\n  File "/home/samfisher/iiith/Semester 2/web2py/gluon/scheduler.py", line 955, in queue_task\n    **kwargs)\n  File "/home/samfisher/iiith/Semester 2/web2py/gluon/dal.py", line 8459, in validate_and_insert\n    response.id = self.insert(**new_fields)\n  File "/home/samfisher/iiith/Semester 2/web2py/gluon/dal.py", line 8442, in insert\n    ret =  self._db._adapter.insert(self, self._listify(fields))\n  File "/home/samfisher/iiith/Semester 2/web2py/gluon/dal.py", line 1206, in insert\n    raise e\nOperationalError: database is locked\n'
p221
s.